	.file	"FI_Rate.cpp"
# GNU C++14 (GCC) version 9.3.1 20200408 (Red Hat 9.3.1-2) (x86_64-redhat-linux)
#	compiled by GNU C version 9.3.1 20200408 (Red Hat 9.3.1-2), GMP version 6.1.2, MPFR version 3.1.6-p2, MPC version 1.1.0, isl version none
# GGC heuristics: --param ggc-min-expand=100 --param ggc-min-heapsize=131072
# options passed:  -D_GNU_SOURCE FI_Rate.cpp -mtune=generic -march=x86-64
# -auxbase-strip FI.s -g -O2 -fverbose-asm
# options enabled:  -faggressive-loop-optimizations -falign-functions
# -falign-jumps -falign-labels -falign-loops -fassume-phsa
# -fasynchronous-unwind-tables -fauto-inc-dec -fbranch-count-reg
# -fcaller-saves -fcode-hoisting -fcombine-stack-adjustments -fcommon
# -fcompare-elim -fcprop-registers -fcrossjumping -fcse-follow-jumps
# -fdefer-pop -fdelete-null-pointer-checks -fdevirtualize
# -fdevirtualize-speculatively -fdwarf2-cfi-asm -fearly-inlining
# -feliminate-unused-debug-types -fexceptions -fexpensive-optimizations
# -fforward-propagate -ffp-int-builtin-inexact -ffunction-cse -fgcse
# -fgcse-lm -fgnu-runtime -fgnu-unique -fguess-branch-probability
# -fhoist-adjacent-loads -fident -fif-conversion -fif-conversion2
# -findirect-inlining -finline -finline-atomics
# -finline-functions-called-once -finline-small-functions -fipa-bit-cp
# -fipa-cp -fipa-icf -fipa-icf-functions -fipa-icf-variables -fipa-profile
# -fipa-pure-const -fipa-ra -fipa-reference -fipa-reference-addressable
# -fipa-sra -fipa-stack-alignment -fipa-vrp -fira-hoist-pressure
# -fira-share-save-slots -fira-share-spill-slots
# -fisolate-erroneous-paths-dereference -fivopts -fkeep-static-consts
# -fleading-underscore -flifetime-dse -flra-remat -flto-odr-type-merging
# -fmath-errno -fmerge-constants -fmerge-debug-strings
# -fmove-loop-invariants -fomit-frame-pointer -foptimize-sibling-calls
# -foptimize-strlen -fpartial-inlining -fpeephole -fpeephole2 -fplt
# -fprefetch-loop-arrays -free -freg-struct-return -freorder-blocks
# -freorder-blocks-and-partition -freorder-functions -frerun-cse-after-loop
# -fsched-critical-path-heuristic -fsched-dep-count-heuristic
# -fsched-group-heuristic -fsched-interblock -fsched-last-insn-heuristic
# -fsched-rank-heuristic -fsched-spec -fsched-spec-insn-heuristic
# -fsched-stalled-insns-dep -fschedule-fusion -fschedule-insns2
# -fsemantic-interposition -fshow-column -fshrink-wrap
# -fshrink-wrap-separate -fsigned-zeros -fsplit-ivs-in-unroller
# -fsplit-wide-types -fssa-backprop -fssa-phiopt -fstdarg-opt
# -fstore-merging -fstrict-aliasing -fstrict-volatile-bitfields
# -fsync-libcalls -fthread-jumps -ftoplevel-reorder -ftrapping-math
# -ftree-bit-ccp -ftree-builtin-call-dce -ftree-ccp -ftree-ch
# -ftree-coalesce-vars -ftree-copy-prop -ftree-cselim -ftree-dce
# -ftree-dominator-opts -ftree-dse -ftree-forwprop -ftree-fre
# -ftree-loop-if-convert -ftree-loop-im -ftree-loop-ivcanon
# -ftree-loop-optimize -ftree-parallelize-loops= -ftree-phiprop -ftree-pre
# -ftree-pta -ftree-reassoc -ftree-scev-cprop -ftree-sink -ftree-slsr
# -ftree-sra -ftree-switch-conversion -ftree-tail-merge -ftree-ter
# -ftree-vrp -funit-at-a-time -funwind-tables -fvar-tracking
# -fvar-tracking-assignments -fverbose-asm -fzero-initialized-in-bss
# -m128bit-long-double -m64 -m80387 -malign-stringops
# -mavx256-split-unaligned-load -mavx256-split-unaligned-store
# -mfancy-math-387 -mfp-ret-in-387 -mfxsr -mglibc -mieee-fp
# -mlong-double-80 -mmmx -mno-sse4 -mpush-args -mred-zone -msse -msse2
# -mstv -mtls-direct-seg-refs -mvzeroupper

	.text
.Ltext0:
	.section	.rodata.str1.8,"aMS",@progbits,1
	.align 8
.LC0:
	.ascii	"Reference boost::detail::multi_array::value_accessor_one<T>:"
	.ascii	":access(boost::type<Reference>, boost::detail::multi_array::"
	.ascii	"value_accessor_one<T>::index, TP"
	.string	"tr, const size_type*, const index*, const index*) const [with Reference = double&; TPtr = double*; T = double; boost::detail::multi_array::value_accessor_one<T>::index = long int; boost::detail::multi_array::multi_array_base::size_type = long unsigned int]"
	.align 8
.LC1:
	.string	"/usr/include/boost/multi_array/base.hpp"
	.align 8
.LC2:
	.string	"size_type(idx - index_bases[0]) < extents[0]"
	.text
	.align 2
	.p2align 4
	.type	_ZNK5boost6detail11multi_array18value_accessor_oneIdE6accessIRdPdEET_NS_4typeIS7_EElT0_PKmPKlSE_.isra.0.part.0, @function
_ZNK5boost6detail11multi_array18value_accessor_oneIdE6accessIRdPdEET_NS_4typeIS7_EElT0_PKmPKlSE_.isra.0.part.0:
.LFB6467:
	.file 1 "/usr/include/boost/multi_array/base.hpp"
	.loc 1 170 13 view -0
	.cfi_startproc
.LVL0:
	.loc 1 170 13 is_stmt 0 view .LVU1
	subq	$8, %rsp	#,
	.cfi_def_cfa_offset 16
# /usr/include/boost/multi_array/base.hpp:178:     BOOST_ASSERT(size_type(idx - index_bases[0]) < extents[0]);
	.loc 1 178 5 view .LVU2
	movl	$.LC0, %ecx	#,
	movl	$178, %edx	#,
	movl	$.LC1, %esi	#,
	movl	$.LC2, %edi	#,
	call	__assert_fail	#
.LVL1:
	.cfi_endproc
.LFE6467:
	.size	_ZNK5boost6detail11multi_array18value_accessor_oneIdE6accessIRdPdEET_NS_4typeIS7_EElT0_PKmPKlSE_.isra.0.part.0, .-_ZNK5boost6detail11multi_array18value_accessor_oneIdE6accessIRdPdEET_NS_4typeIS7_EElT0_PKmPKlSE_.isra.0.part.0
	.section	.rodata._ZN5boost15multi_array_refIdLm2EEixEl.str1.8,"aMS",@progbits,1
	.align 8
.LC3:
	.ascii	"Reference boost::detail::multi_array::value_accessor_n<T, Nu"
	.ascii	"mDims>::access(boost::type<Reference>, boost::detail::multi_"
	.ascii	"array::value_accessor_n<T, NumDims>::index, TPtr, const size"
	.ascii	"_type*, const index*, const index*) const [with Reference = "
	.ascii	"boost"
	.string	"::detail::multi_array::sub_array<double, 1>; TPtr = double*; T = double; long unsigned int NumDims = 2; boost::detail::multi_array::value_accessor_n<T, NumDims>::index = long int; boost::detail::multi_array::multi_array_base::size_type = long unsigned int]"
	.section	.rodata._ZN5boost15multi_array_refIdLm2EEixEl.str1.1,"aMS",@progbits,1
.LC4:
	.string	"idx - index_bases[0] >= 0"
	.section	.text._ZN5boost15multi_array_refIdLm2EEixEl,"axG",@progbits,_ZN5boost15multi_array_refIdLm2EEixEl,comdat
	.align 2
	.p2align 4
	.weak	_ZN5boost15multi_array_refIdLm2EEixEl
	.type	_ZN5boost15multi_array_refIdLm2EEixEl, @function
_ZN5boost15multi_array_refIdLm2EEixEl:
.LVL2:
.LFB5424:
	.file 2 "/usr/include/boost/multi_array/multi_array_ref.hpp"
	.loc 2 519 13 is_stmt 1 view -0
	.cfi_startproc
	.loc 2 519 13 is_stmt 0 view .LVU4
	subq	$8, %rsp	#,
	.cfi_def_cfa_offset 16
# /usr/include/boost/multi_array/multi_array_ref.hpp:519:   reference operator[](index idx) {
	.loc 2 519 13 view .LVU5
	movq	%rdi, %rax	# tmp109, <retval>
# /usr/include/boost/multi_array/multi_array_ref.hpp:523:                               this->index_bases());
	.loc 2 523 50 view .LVU6
	movq	(%rsi), %rcx	# MEM[(double * *)this_1(D)], _8
.LBB2525:
.LBI2525:
	.loc 2 504 12 is_stmt 1 view .LVU7
.LVL3:
.LBB2526:
# /usr/include/boost/multi_array/multi_array_ref.hpp:504:   element* origin() { return super_type::base_+super_type::origin_offset_; }
	.loc 2 504 47 is_stmt 0 view .LVU8
	movq	80(%rsi), %rdi	# MEM[(long int *)this_1(D) + 80B], _4
.LVL4:
	.loc 2 504 47 view .LVU9
.LBE2526:
.LBE2525:
.LBB2527:
.LBI2527:
	.loc 1 130 13 is_stmt 1 view .LVU10
.LBB2528:
# /usr/include/boost/multi_array/base.hpp:135:     BOOST_ASSERT(idx - index_bases[0] >= 0);
	.loc 1 135 5 is_stmt 0 view .LVU11
	movq	%rdx, %r8	# idx, _15
	subq	64(%rsi), %r8	# MEM[(const index *)this_1(D) + 64B], _15
	js	.L8	#,
# /usr/include/boost/multi_array/base.hpp:136:     BOOST_ASSERT(size_type(idx - index_bases[0]) < extents[0]);
	.loc 1 136 5 view .LVU12
	cmpq	32(%rsi), %r8	# MEM[(const size_type *)this_1(D) + 32B], _15
	jnb	.L9	#,
.LVL5:
.LBB2529:
.LBI2529:
	.file 3 "/usr/include/boost/multi_array/subarray.hpp"
	.loc 3 358 3 is_stmt 1 view .LVU13
.LBB2530:
.LBI2530:
	.loc 3 178 3 view .LVU14
.LBB2531:
.LBB2532:
.LBI2532:
	.loc 1 294 3 view .LVU15
.LBB2533:
.LBI2533:
	.loc 1 182 3 view .LVU16
	.loc 1 182 3 is_stmt 0 view .LVU17
.LBE2533:
.LBE2532:
.LBE2531:
.LBE2530:
.LBE2529:
# /usr/include/boost/multi_array/base.hpp:138:     TPtr newbase = base + idx * strides[0];
	.loc 1 138 31 view .LVU18
	imulq	48(%rsi), %rdx	# MEM[(const index *)this_1(D) + 48B], tmp101
.LVL6:
# /usr/include/boost/multi_array/base.hpp:138:     TPtr newbase = base + idx * strides[0];
	.loc 1 138 10 view .LVU19
	addq	%rdi, %rdx	# _4, tmp102
	leaq	(%rcx,%rdx,8), %rdx	#, tmp104
	movq	%rdx, (%rax)	# tmp104, MEM[(struct const_sub_array *)_5(D)].base_
# /usr/include/boost/multi_array/base.hpp:139:     return Reference(newbase,extents+1,strides+1,index_bases+1);
	.loc 1 139 63 view .LVU20
	leaq	40(%rsi), %rdx	#, tmp105
.LVL7:
	.loc 1 139 63 view .LVU21
	movq	%rdx, 8(%rax)	# tmp105, MEM[(struct const_sub_array *)_5(D)].extents_
	leaq	56(%rsi), %rdx	#, tmp106
.LVL8:
	.loc 1 139 63 view .LVU22
	addq	$72, %rsi	#, tmp107
.LVL9:
	.loc 1 139 63 view .LVU23
	movq	%rdx, 16(%rax)	# tmp106, MEM[(struct const_sub_array *)_5(D)].strides_
	movq	%rsi, 24(%rax)	# tmp107, MEM[(struct const_sub_array *)_5(D)].index_base_
.LVL10:
	.loc 1 139 63 view .LVU24
.LBE2528:
.LBE2527:
# /usr/include/boost/multi_array/multi_array_ref.hpp:524:   }
	.loc 2 524 3 view .LVU25
	addq	$8, %rsp	#,
	.cfi_remember_state
	.cfi_def_cfa_offset 8
	ret	
.LVL11:
.L8:
	.cfi_restore_state
.LBB2535:
.LBB2534:
# /usr/include/boost/multi_array/base.hpp:135:     BOOST_ASSERT(idx - index_bases[0] >= 0);
	.loc 1 135 5 view .LVU26
	movl	$.LC3, %ecx	#,
.LVL12:
	.loc 1 135 5 view .LVU27
	movl	$135, %edx	#,
.LVL13:
	.loc 1 135 5 view .LVU28
	movl	$.LC1, %esi	#,
.LVL14:
	.loc 1 135 5 view .LVU29
	movl	$.LC4, %edi	#,
.LVL15:
	.loc 1 135 5 view .LVU30
	call	__assert_fail	#
.LVL16:
.L9:
# /usr/include/boost/multi_array/base.hpp:136:     BOOST_ASSERT(size_type(idx - index_bases[0]) < extents[0]);
	.loc 1 136 5 view .LVU31
	movl	$.LC3, %ecx	#,
.LVL17:
	.loc 1 136 5 view .LVU32
	movl	$136, %edx	#,
.LVL18:
	.loc 1 136 5 view .LVU33
	movl	$.LC1, %esi	#,
.LVL19:
	.loc 1 136 5 view .LVU34
	movl	$.LC2, %edi	#,
.LVL20:
	.loc 1 136 5 view .LVU35
	call	__assert_fail	#
.LVL21:
	.loc 1 136 5 view .LVU36
.LBE2534:
.LBE2535:
	.cfi_endproc
.LFE5424:
	.size	_ZN5boost15multi_array_refIdLm2EEixEl, .-_ZN5boost15multi_array_refIdLm2EEixEl
	.section	.rodata._ZNSt11__copy_moveILb0ELb0EN5boost9iterators6detail32iterator_category_with_traversalISt18input_iterator_tagNS1_27random_access_traversal_tagEEEE8__copy_mINS0_6detail11multi_array14array_iteratorIdPKdN4mpl_6size_tILm2EEENSA_15const_sub_arrayIdLm1ESD_EES5_EENSB_IdPdSG_NSA_9sub_arrayIdLm1EEES5_EEEET0_T_SP_SO_.str1.8,"aMS",@progbits,1
	.align 8
.LC5:
	.ascii	"Reference boost::detail::multi_array::value_accessor_n<T, Nu"
	.ascii	"mDims>::access(boost::type<Reference>, boost::detail::multi_"
	.ascii	"array::value_accessor_n<T, NumDims>::index, TPtr, const size"
	.ascii	"_type*, const index*, const index*) const [with Reference = "
	.ascii	"boost::detail::multi_array::cons"
	.string	"t_sub_array<double, 1, const double*>; TPtr = const double*; T = double; long unsigned int NumDims = 2; boost::detail::multi_array::value_accessor_n<T, NumDims>::index = long int; boost::detail::multi_array::multi_array_base::size_type = long unsigned int]"
	.align 8
.LC6:
	.ascii	"boost::detail::mu"
	.string	"lti_array::sub_array<T, NumDims>& boost::detail::multi_array::sub_array<T, NumDims>::operator=(const ConstMultiArray&) [with ConstMultiArray = boost::detail::multi_array::const_sub_array<double, 1, const double*>; T = double; long unsigned int NumDims = 1]"
	.align 8
.LC7:
	.string	"/usr/include/boost/multi_array/subarray.hpp"
	.align 8
.LC8:
	.string	"std::equal(other.shape(),other.shape()+this->num_dimensions(), this->shape())"
	.align 8
.LC9:
	.ascii	"Reference boost::detail::multi_array::value_accessor_one<T>:"
	.ascii	":access(boost::type<Reference>, boost::detail::multi_array::"
	.ascii	"value_accessor_one<T>::index, TPtr, const si"
	.string	"ze_type*, const index*, const index*) const [with Reference = const double&; TPtr = const double*; T = double; boost::detail::multi_array::value_accessor_one<T>::index = long int; boost::detail::multi_array::multi_array_base::size_type = long unsigned int]"
	.section	.text._ZNSt11__copy_moveILb0ELb0EN5boost9iterators6detail32iterator_category_with_traversalISt18input_iterator_tagNS1_27random_access_traversal_tagEEEE8__copy_mINS0_6detail11multi_array14array_iteratorIdPKdN4mpl_6size_tILm2EEENSA_15const_sub_arrayIdLm1ESD_EES5_EENSB_IdPdSG_NSA_9sub_arrayIdLm1EEES5_EEEET0_T_SP_SO_,"axG",@progbits,_ZNSt11__copy_moveILb0ELb0EN5boost9iterators6detail32iterator_category_with_traversalISt18input_iterator_tagNS1_27random_access_traversal_tagEEEE8__copy_mINS0_6detail11multi_array14array_iteratorIdPKdN4mpl_6size_tILm2EEENSA_15const_sub_arrayIdLm1ESD_EES5_EENSB_IdPdSG_NSA_9sub_arrayIdLm1EEES5_EEEET0_T_SP_SO_,comdat
	.p2align 4
	.weak	_ZNSt11__copy_moveILb0ELb0EN5boost9iterators6detail32iterator_category_with_traversalISt18input_iterator_tagNS1_27random_access_traversal_tagEEEE8__copy_mINS0_6detail11multi_array14array_iteratorIdPKdN4mpl_6size_tILm2EEENSA_15const_sub_arrayIdLm1ESD_EES5_EENSB_IdPdSG_NSA_9sub_arrayIdLm1EEES5_EEEET0_T_SP_SO_
	.type	_ZNSt11__copy_moveILb0ELb0EN5boost9iterators6detail32iterator_category_with_traversalISt18input_iterator_tagNS1_27random_access_traversal_tagEEEE8__copy_mINS0_6detail11multi_array14array_iteratorIdPKdN4mpl_6size_tILm2EEENSA_15const_sub_arrayIdLm1ESD_EES5_EENSB_IdPdSG_NSA_9sub_arrayIdLm1EEES5_EEEET0_T_SP_SO_, @function
_ZNSt11__copy_moveILb0ELb0EN5boost9iterators6detail32iterator_category_with_traversalISt18input_iterator_tagNS1_27random_access_traversal_tagEEEE8__copy_mINS0_6detail11multi_array14array_iteratorIdPKdN4mpl_6size_tILm2EEENSA_15const_sub_arrayIdLm1ESD_EES5_EENSB_IdPdSG_NSA_9sub_arrayIdLm1EEES5_EEEET0_T_SP_SO_:
.LVL22:
.LFB6027:
	.file 4 "/usr/include/c++/9/bits/stl_algobase.h"
	.loc 4 309 2 is_stmt 1 view -0
	.cfi_startproc
	.loc 4 309 2 is_stmt 0 view .LVU38
	pushq	%r15	#
	.cfi_def_cfa_offset 16
	.cfi_offset 15, -16
	pushq	%r14	#
	.cfi_def_cfa_offset 24
	.cfi_offset 14, -24
	pushq	%r13	#
	.cfi_def_cfa_offset 32
	.cfi_offset 13, -32
	pushq	%r12	#
	.cfi_def_cfa_offset 40
	.cfi_offset 12, -40
	pushq	%rbp	#
	.cfi_def_cfa_offset 48
	.cfi_offset 6, -48
	pushq	%rbx	#
	.cfi_def_cfa_offset 56
	.cfi_offset 3, -56
	subq	$88, %rsp	#,
	.cfi_def_cfa_offset 144
	movq	(%rdx), %rbx	# MEM[(const struct array_iterator &)__last_4(D)].idx_, pretmp_86
	movq	32(%rsi), %r12	# MEM[(const struct array_iterator *)__first_3(D)].index_base_, pretmp_190
	movq	16(%rsi), %rbp	# MEM[(const struct array_iterator *)__first_3(D)].extents_, pretmp_186
	movq	24(%rsi), %r15	# MEM[(const struct array_iterator *)__first_3(D)].strides_, pretmp_188
# /usr/include/c++/9/bits/stl_algobase.h:309: 	__copy_m(_II __first, _II __last, _OI __result)
	.loc 4 309 2 view .LVU39
	movq	%rdi, 72(%rsp)	# tmp179, %sfp
	movq	%rbx, 48(%rsp)	# pretmp_86, %sfp
	movq	8(%rsi), %rbx	# MEM[(const struct array_iterator *)__first_3(D)].base_, pretmp_74
	movq	%rsi, 56(%rsp)	# __first, %sfp
	movq	(%rsi), %rdi	# MEM[(const struct array_iterator *)__first_3(D)].idx_, _13
.LVL23:
	.loc 4 309 2 view .LVU40
	movq	%rbx, 32(%rsp)	# pretmp_74, %sfp
	movq	%r12, %rbx	# pretmp_190, pretmp_190
	.loc 4 311 19 is_stmt 1 view .LVU41
.LVL24:
.LBB2718:
.LBI2718:
	.file 5 "/usr/include/boost/iterator/iterator_facade.hpp"
	.loc 5 901 3 view .LVU42
.LBB2719:
.LBI2719:
	.loc 5 566 19 view .LVU43
.LBB2720:
.LBI2720:
	.file 6 "/usr/include/boost/multi_array/iterator.hpp"
	.loc 6 135 8 view .LVU44
	.loc 6 135 8 is_stmt 0 view .LVU45
.LBE2720:
.LBE2719:
.LBE2718:
# /usr/include/c++/9/bits/stl_algobase.h:309: 	__copy_m(_II __first, _II __last, _OI __result)
	.loc 4 309 2 view .LVU46
	movq	%rdx, 64(%rsp)	# __last, %sfp
.LVL25:
.LBB2744:
.LBB2742:
.LBB2740:
.LBB2721:
# /usr/include/boost/multi_array/iterator.hpp:142:         std::equal(strides_,strides_+N,rhs.strides_) ) &&
	.loc 6 142 56 view .LVU47
	cmpq	%rdi, 48(%rsp)	# _13, %sfp
	je	.L38	#,
.LVL26:
	.p2align 4,,10
	.p2align 3
.L11:
	.loc 6 142 56 view .LVU48
.LBE2721:
.LBE2740:
.LBE2742:
.LBE2744:
.LBB2745:
.LBI2745:
	.loc 5 654 19 is_stmt 1 view .LVU49
.LBB2746:
.LBI2746:
	.loc 5 548 41 view .LVU50
.LBB2747:
.LBI2747:
	.loc 6 120 13 view .LVU51
.LBB2748:
.LBB2749:
.LBI2749:
	.loc 1 130 13 view .LVU52
.LBB2750:
# /usr/include/boost/multi_array/base.hpp:135:     BOOST_ASSERT(idx - index_bases[0] >= 0);
	.loc 1 135 5 is_stmt 0 view .LVU53
	movq	%rdi, %rax	# _13, _66
	subq	(%rbx), %rax	# MEM[(const index *)pretmp_190], _66
	js	.L39	#,
# /usr/include/boost/multi_array/base.hpp:136:     BOOST_ASSERT(size_type(idx - index_bases[0]) < extents[0]);
	.loc 1 136 5 view .LVU54
	cmpq	0(%rbp), %rax	# MEM[(const size_type *)pretmp_186], _66
	jnb	.L40	#,
# /usr/include/boost/multi_array/base.hpp:138:     TPtr newbase = base + idx * strides[0];
	.loc 1 138 31 view .LVU55
	movq	(%r15), %rax	# MEM[(const index *)pretmp_188], _71
.LBE2750:
.LBE2749:
.LBE2748:
.LBE2747:
.LBE2746:
.LBE2745:
.LBB2769:
.LBB2770:
.LBB2771:
.LBB2772:
# /usr/include/boost/multi_array/iterator.hpp:124:                             idx_,
	.loc 6 124 29 view .LVU56
	movq	(%rcx), %r8	# MEM[(const struct array_iterator *)__result_7(D)].idx_, _59
# /usr/include/boost/multi_array/iterator.hpp:127:                             strides_,
	.loc 6 127 29 view .LVU57
	movq	24(%rcx), %r11	# MEM[(const struct array_iterator *)__result_7(D)].strides_, _56
# /usr/include/boost/multi_array/iterator.hpp:126:                             extents_,
	.loc 6 126 29 view .LVU58
	movq	16(%rcx), %r10	# MEM[(const struct array_iterator *)__result_7(D)].extents_, _57
.LBE2772:
.LBE2771:
.LBE2770:
.LBE2769:
.LBB2797:
.LBB2766:
.LBB2763:
.LBB2760:
.LBB2757:
.LBB2754:
# /usr/include/boost/multi_array/base.hpp:138:     TPtr newbase = base + idx * strides[0];
	.loc 1 138 31 view .LVU59
	imulq	%rdi, %rax	# _13, _71
.LBE2754:
.LBE2757:
.LBE2760:
.LBE2763:
.LBE2766:
.LBE2797:
.LBB2798:
.LBB2793:
.LBB2789:
.LBB2785:
# /usr/include/boost/multi_array/iterator.hpp:125:                             base_,
	.loc 6 125 29 view .LVU60
	movq	8(%rcx), %r14	# MEM[(const struct array_iterator *)__result_7(D)].base_, _58
.LBB2773:
.LBB2774:
# /usr/include/boost/multi_array/base.hpp:135:     BOOST_ASSERT(idx - index_bases[0] >= 0);
	.loc 1 135 5 view .LVU61
	movq	%r8, %rdx	# _59, _78
.LBE2774:
.LBE2773:
.LBE2785:
.LBE2789:
.LBE2793:
.LBE2798:
.LBB2799:
.LBB2767:
.LBB2764:
.LBB2761:
.LBB2758:
.LBB2755:
# /usr/include/boost/multi_array/base.hpp:138:     TPtr newbase = base + idx * strides[0];
	.loc 1 138 31 view .LVU62
	movq	%rax, 8(%rsp)	# _71, %sfp
.LVL27:
.LBB2751:
.LBI2751:
	.loc 3 178 3 is_stmt 1 view .LVU63
.LBB2752:
.LBI2752:
	.loc 1 294 3 view .LVU64
.LBB2753:
.LBI2753:
	.loc 1 182 3 view .LVU65
	.loc 1 182 3 is_stmt 0 view .LVU66
.LBE2753:
.LBE2752:
.LBE2751:
.LBE2755:
.LBE2758:
.LBE2761:
.LBE2764:
.LBE2767:
.LBE2799:
.LBB2800:
.LBI2769:
	.loc 5 654 19 is_stmt 1 view .LVU67
.LBB2794:
.LBI2770:
	.loc 5 548 41 view .LVU68
.LBB2790:
.LBI2771:
	.loc 6 120 13 view .LVU69
.LBB2786:
# /usr/include/boost/multi_array/iterator.hpp:128:                             index_base_);
	.loc 6 128 29 is_stmt 0 view .LVU70
	movq	32(%rcx), %rax	# MEM[(const struct array_iterator *)__result_7(D)].index_base_, _55
.LVL28:
.LBB2782:
.LBI2773:
	.loc 1 130 13 is_stmt 1 view .LVU71
.LBB2779:
# /usr/include/boost/multi_array/base.hpp:135:     BOOST_ASSERT(idx - index_bases[0] >= 0);
	.loc 1 135 5 is_stmt 0 view .LVU72
	subq	(%rax), %rdx	# MEM[(const index *)_55], _78
.LVL29:
	.loc 1 135 5 view .LVU73
	js	.L41	#,
# /usr/include/boost/multi_array/base.hpp:136:     BOOST_ASSERT(size_type(idx - index_bases[0]) < extents[0]);
	.loc 1 136 5 view .LVU74
	cmpq	(%r10), %rdx	# MEM[(const size_type *)_57], _78
	jnb	.L42	#,
# /usr/include/boost/multi_array/base.hpp:138:     TPtr newbase = base + idx * strides[0];
	.loc 1 138 31 view .LVU75
	movq	(%r11), %rsi	# MEM[(const index *)_56], _83
.LBE2779:
.LBE2782:
.LBE2786:
.LBE2790:
.LBE2794:
.LBE2800:
.LBB2801:
.LBB2802:
# /usr/include/boost/multi_array/subarray.hpp:235:     BOOST_ASSERT(std::equal(other.shape(),other.shape()+this->num_dimensions(),
	.loc 3 235 5 view .LVU76
	movq	8(%r10), %r9	# MEM[(char * {ref-all})_57 + 8B], MEM[(char * {ref-all})_57 + 8B]
.LBE2802:
.LBE2801:
.LBB2910:
.LBB2795:
.LBB2791:
.LBB2787:
.LBB2783:
.LBB2780:
# /usr/include/boost/multi_array/base.hpp:138:     TPtr newbase = base + idx * strides[0];
	.loc 1 138 31 view .LVU77
	imulq	%r8, %rsi	# _59, _83
	movq	%rsi, 16(%rsp)	# _83, %sfp
.LVL30:
.LBB2775:
.LBI2775:
	.loc 3 358 3 is_stmt 1 view .LVU78
.LBB2776:
.LBI2776:
	.loc 3 178 3 view .LVU79
.LBB2777:
.LBI2777:
	.loc 1 294 3 view .LVU80
.LBB2778:
.LBI2778:
	.loc 1 182 3 view .LVU81
	.loc 1 182 3 is_stmt 0 view .LVU82
.LBE2778:
.LBE2777:
.LBE2776:
.LBE2775:
.LBE2780:
.LBE2783:
.LBE2787:
.LBE2791:
.LBE2795:
.LBE2910:
.LBB2911:
.LBI2801:
	.loc 3 229 14 is_stmt 1 view .LVU83
.LBB2908:
.LBB2803:
.LBI2803:
	.loc 4 1059 5 view .LVU84
.LBB2804:
.LBI2804:
	.loc 4 841 5 view .LVU85
.LBB2805:
.LBB2806:
.LBI2806:
	.loc 4 831 2 view .LVU86
	.loc 4 831 2 is_stmt 0 view .LVU87
.LBE2806:
.LBE2805:
.LBE2804:
.LBE2803:
# /usr/include/boost/multi_array/subarray.hpp:235:     BOOST_ASSERT(std::equal(other.shape(),other.shape()+this->num_dimensions(),
	.loc 3 235 5 view .LVU88
	cmpq	8(%rbp), %r9	# MEM[(char * {ref-all})pretmp_186 + 8B], MEM[(char * {ref-all})_57 + 8B]
	jne	.L43	#,
.LVL31:
.LBB2807:
.LBI2807:
	.loc 3 290 12 is_stmt 1 view .LVU89
.LBB2808:
# /usr/include/boost/multi_array/subarray.hpp:292:                     this->shape(),this->strides(),this->index_bases());
	.loc 3 292 70 is_stmt 0 view .LVU90
	movq	8(%rax), %r13	# MEM[(const index *)_55 + 8B], _46
.LVL32:
.LBB2809:
.LBI2809:
	.loc 6 97 3 is_stmt 1 view .LVU91
.LBB2810:
.LBI2810:
	.loc 1 182 3 view .LVU92
	.loc 1 182 3 is_stmt 0 view .LVU93
.LBE2810:
.LBE2809:
.LBE2808:
.LBE2807:
.LBB2811:
.LBI2811:
	.loc 3 142 18 is_stmt 1 view .LVU94
	.loc 3 142 18 is_stmt 0 view .LVU95
	leaq	-1(%r9), %rax	#, _167
.LBB2812:
# /usr/include/boost/multi_array/subarray.hpp:144:                           shape(),strides(),index_bases());
	.loc 3 144 58 view .LVU96
	movq	8(%rbx), %r12	# MEM[(const index *)pretmp_190 + 8B], _50
.LVL33:
.LBB2813:
.LBI2813:
	.loc 6 97 3 is_stmt 1 view .LVU97
.LBB2814:
.LBI2814:
	.loc 1 182 3 view .LVU98
	.loc 1 182 3 is_stmt 0 view .LVU99
.LBE2814:
.LBE2813:
.LBE2812:
.LBE2811:
.LBB2815:
.LBI2815:
	.loc 3 137 18 is_stmt 1 view .LVU100
.LBB2816:
.LBI2816:
	.loc 6 97 3 view .LVU101
.LBB2817:
.LBI2817:
	.loc 1 182 3 view .LVU102
	.loc 1 182 3 is_stmt 0 view .LVU103
.LBE2817:
.LBE2816:
.LBE2815:
.LBB2818:
.LBI2818:
	.loc 4 465 5 is_stmt 1 view .LVU104
.LBB2819:
.LBI2819:
	.loc 4 438 5 view .LVU105
.LBB2820:
.LBI2820:
	.loc 4 393 5 view .LVU106
.LBB2821:
.LBB2822:
.LBI2822:
	.loc 4 337 2 view .LVU107
.LBB2823:
.LBB2824:
	.loc 4 340 46 view .LVU108
	movq	%rax, 24(%rsp)	# _167, %sfp
.LBB2825:
.LBB2826:
.LBB2827:
.LBB2828:
.LBB2829:
.LBB2830:
# /usr/include/boost/multi_array/base.hpp:177:     BOOST_ASSERT(idx - index_bases[0] >= 0);
	.loc 1 177 5 is_stmt 0 view .LVU109
	xorl	%eax, %eax	# _21
.LBE2830:
.LBE2829:
.LBE2828:
.LBE2827:
.LBE2826:
.LBE2825:
# /usr/include/c++/9/bits/stl_algobase.h:340: 	  for(_Distance __n = __last - __first; __n > 0; --__n)
	.loc 4 340 46 view .LVU110
	testq	%r9, %r9	# MEM[(char * {ref-all})_57 + 8B]
	jle	.L31	#,
	movq	%rcx, 40(%rsp)	# __result, %sfp
	jmp	.L28	#
.LVL34:
	.p2align 4,,10
	.p2align 3
.L35:
.LBB2841:
.LBI2825:
	.loc 5 654 19 is_stmt 1 view .LVU111
.LBB2839:
.LBI2826:
	.loc 5 548 41 view .LVU112
.LBB2837:
.LBI2827:
	.loc 6 120 13 view .LVU113
.LBB2835:
.LBB2833:
.LBI2829:
	.loc 1 170 13 view .LVU114
	.loc 1 170 13 is_stmt 0 view .LVU115
	addq	$1, %rax	#, _21
.LVL35:
.L28:
	.loc 1 170 13 view .LVU116
	leaq	(%r12,%rax), %rsi	#, _187
	leaq	0(%r13,%rax), %rdx	#, _147
.LVL36:
.LBB2831:
# /usr/include/boost/multi_array/base.hpp:178:     BOOST_ASSERT(size_type(idx - index_bases[0]) < extents[0]);
	.loc 1 178 5 view .LVU117
	cmpq	%rax, %r9	# _21, MEM[(char * {ref-all})_57 + 8B]
	je	.L44	#,
# /usr/include/boost/multi_array/base.hpp:179:     return *(base + idx * strides[0]);
	.loc 1 179 37 view .LVU118
	movq	32(%rsp), %rcx	# %sfp, pretmp_74
# /usr/include/boost/multi_array/base.hpp:179:     return *(base + idx * strides[0]);
	.loc 1 179 25 view .LVU119
	imulq	8(%r15), %rsi	# MEM[(const index *)pretmp_188 + 8B], tmp164
.LVL37:
# /usr/include/boost/multi_array/base.hpp:179:     return *(base + idx * strides[0]);
	.loc 1 179 37 view .LVU120
	addq	8(%rsp), %rsi	# %sfp, tmp165
	leaq	(%rcx,%rsi,8), %rsi	#, _148
.LVL38:
	.loc 1 179 37 view .LVU121
.LBE2831:
.LBE2833:
.LBE2835:
.LBE2837:
.LBE2839:
.LBE2841:
.LBB2842:
.LBI2842:
	.loc 5 654 19 is_stmt 1 view .LVU122
.LBB2843:
.LBI2843:
	.loc 5 548 41 view .LVU123
.LBB2844:
.LBI2844:
	.loc 6 120 13 view .LVU124
.LBB2845:
.LBB2846:
.LBI2846:
	.loc 1 170 13 view .LVU125
.LBB2847:
# /usr/include/boost/multi_array/base.hpp:178:     BOOST_ASSERT(size_type(idx - index_bases[0]) < extents[0]);
	.loc 1 178 5 is_stmt 0 view .LVU126
	cmpq	8(%r10), %rax	# MEM[(const size_type *)_57 + 8B], _21
	jnb	.L45	#,
.LVL39:
	.loc 1 178 5 view .LVU127
.LBE2847:
.LBE2846:
.LBE2845:
.LBE2844:
.LBE2843:
.LBE2842:
# /usr/include/c++/9/bits/stl_algobase.h:342: 	      *__result = *__first;
	.loc 4 342 8 view .LVU128
	movsd	(%rsi), %xmm0	# *_148, _120
.LBB2860:
.LBB2858:
.LBB2856:
.LBB2854:
.LBB2852:
.LBB2850:
# /usr/include/boost/multi_array/base.hpp:179:     return *(base + idx * strides[0]);
	.loc 1 179 25 view .LVU129
	imulq	8(%r11), %rdx	# MEM[(const index *)_56 + 8B], tmp167
# /usr/include/boost/multi_array/base.hpp:179:     return *(base + idx * strides[0]);
	.loc 1 179 37 view .LVU130
	addq	16(%rsp), %rdx	# %sfp, tmp168
.LBE2850:
.LBE2852:
.LBE2854:
.LBE2856:
.LBE2858:
.LBE2860:
# /usr/include/c++/9/bits/stl_algobase.h:342: 	      *__result = *__first;
	.loc 4 342 8 view .LVU131
	movsd	%xmm0, (%r14,%rdx,8)	# _120, *_157
.LVL40:
	.loc 4 340 4 is_stmt 1 view .LVU132
	.loc 4 340 46 view .LVU133
	cmpq	%rax, 24(%rsp)	# _21, %sfp
	jne	.L35	#,
	movq	40(%rsp), %rcx	# %sfp, __result
.LVL41:
.L31:
	.loc 4 340 46 is_stmt 0 view .LVU134
.LBE2824:
.LBE2823:
.LBE2822:
.LBB2865:
.LBI2865:
	.loc 6 52 7 is_stmt 1 view .LVU135
.LBB2866:
.LBI2866:
	.loc 1 183 3 view .LVU136
	.loc 1 183 3 is_stmt 0 view .LVU137
.LBE2866:
.LBE2865:
.LBB2867:
.LBI2867:
	.loc 6 52 7 is_stmt 1 view .LVU138
.LBB2868:
.LBI2868:
	.loc 1 183 3 view .LVU139
	.loc 1 183 3 is_stmt 0 view .LVU140
.LBE2868:
.LBE2867:
.LBB2869:
.LBI2869:
	.loc 6 52 7 is_stmt 1 view .LVU141
.LBB2870:
.LBI2870:
	.loc 1 183 3 view .LVU142
	.loc 1 183 3 is_stmt 0 view .LVU143
.LBE2870:
.LBE2869:
.LBE2821:
.LBE2820:
.LBB2873:
.LBI2873:
	.loc 6 52 7 is_stmt 1 view .LVU144
.LBB2874:
.LBI2874:
	.loc 1 183 3 view .LVU145
	.loc 1 183 3 is_stmt 0 view .LVU146
.LBE2874:
.LBE2873:
.LBB2875:
.LBI2875:
	.loc 6 52 7 is_stmt 1 view .LVU147
.LBB2876:
.LBI2876:
	.loc 1 183 3 view .LVU148
	.loc 1 183 3 is_stmt 0 view .LVU149
.LBE2876:
.LBE2875:
.LBB2877:
.LBI2877:
	.loc 6 52 7 is_stmt 1 view .LVU150
.LBB2878:
.LBI2878:
	.loc 1 183 3 view .LVU151
	.loc 1 183 3 is_stmt 0 view .LVU152
.LBE2878:
.LBE2877:
.LBB2879:
.LBI2879:
	.loc 6 52 7 is_stmt 1 view .LVU153
.LBB2880:
.LBI2880:
	.loc 1 183 3 view .LVU154
	.loc 1 183 3 is_stmt 0 view .LVU155
.LBE2880:
.LBE2879:
.LBB2881:
.LBI2881:
	.loc 6 52 7 is_stmt 1 view .LVU156
.LBB2882:
.LBI2882:
	.loc 1 183 3 view .LVU157
	.loc 1 183 3 is_stmt 0 view .LVU158
.LBE2882:
.LBE2881:
.LBB2883:
.LBI2883:
	.loc 6 52 7 is_stmt 1 view .LVU159
.LBB2884:
.LBI2884:
	.loc 1 183 3 view .LVU160
	.loc 1 183 3 is_stmt 0 view .LVU161
.LBE2884:
.LBE2883:
.LBB2885:
.LBI2885:
	.loc 6 52 7 is_stmt 1 view .LVU162
.LBB2886:
.LBI2886:
	.loc 1 183 3 view .LVU163
	.loc 1 183 3 is_stmt 0 view .LVU164
.LBE2886:
.LBE2885:
.LBE2819:
.LBB2888:
.LBI2888:
	.loc 6 52 7 is_stmt 1 view .LVU165
.LBB2889:
.LBI2889:
	.loc 1 183 3 view .LVU166
	.loc 1 183 3 is_stmt 0 view .LVU167
.LBE2889:
.LBE2888:
.LBB2890:
.LBI2890:
	.loc 6 52 7 is_stmt 1 view .LVU168
.LBB2891:
.LBI2891:
	.loc 1 183 3 view .LVU169
	.loc 1 183 3 is_stmt 0 view .LVU170
.LBE2891:
.LBE2890:
.LBB2892:
.LBI2892:
	.loc 6 52 7 is_stmt 1 view .LVU171
.LBB2893:
.LBI2893:
	.loc 1 183 3 view .LVU172
	.loc 1 183 3 is_stmt 0 view .LVU173
.LBE2893:
.LBE2892:
.LBB2894:
.LBI2894:
	.loc 6 52 7 is_stmt 1 view .LVU174
.LBB2895:
.LBI2895:
	.loc 1 183 3 view .LVU175
	.loc 1 183 3 is_stmt 0 view .LVU176
.LBE2895:
.LBE2894:
.LBB2896:
.LBI2896:
	.loc 6 52 7 is_stmt 1 view .LVU177
.LBB2897:
.LBI2897:
	.loc 1 183 3 view .LVU178
	.loc 1 183 3 is_stmt 0 view .LVU179
.LBE2897:
.LBE2896:
.LBE2818:
.LBB2899:
.LBI2899:
	.loc 6 52 7 is_stmt 1 view .LVU180
.LBB2900:
.LBI2900:
	.loc 1 183 3 view .LVU181
	.loc 1 183 3 is_stmt 0 view .LVU182
.LBE2900:
.LBE2899:
.LBB2901:
.LBI2901:
	.loc 6 52 7 is_stmt 1 view .LVU183
.LBB2902:
.LBI2902:
	.loc 1 183 3 view .LVU184
	.loc 1 183 3 is_stmt 0 view .LVU185
.LBE2902:
.LBE2901:
.LBB2903:
.LBI2903:
	.loc 6 52 7 is_stmt 1 view .LVU186
.LBB2904:
.LBI2904:
	.loc 1 183 3 view .LVU187
	.loc 1 183 3 is_stmt 0 view .LVU188
.LBE2904:
.LBE2903:
.LBB2905:
.LBI2905:
	.loc 6 52 7 is_stmt 1 view .LVU189
.LBB2906:
.LBI2906:
	.loc 1 183 3 view .LVU190
	.loc 1 183 3 is_stmt 0 view .LVU191
.LBE2906:
.LBE2905:
.LBE2908:
.LBE2911:
.LBB2912:
.LBI2912:
	.loc 3 202 7 is_stmt 1 view .LVU192
.LBB2913:
.LBI2913:
	.loc 3 39 7 view .LVU193
.LBB2914:
.LBI2914:
	.loc 1 295 3 view .LVU194
.LBB2915:
.LBI2915:
	.loc 1 183 3 view .LVU195
	.loc 1 183 3 is_stmt 0 view .LVU196
.LBE2915:
.LBE2914:
.LBE2913:
.LBE2912:
.LBB2916:
.LBI2916:
	.loc 3 39 7 is_stmt 1 view .LVU197
.LBB2917:
.LBI2917:
	.loc 1 295 3 view .LVU198
.LBB2918:
.LBI2918:
	.loc 1 183 3 view .LVU199
	.loc 1 183 3 is_stmt 0 view .LVU200
.LBE2918:
.LBE2917:
.LBE2916:
	.loc 4 311 4 is_stmt 1 view .LVU201
.LBB2919:
.LBI2919:
	.loc 5 664 18 view .LVU202
.LBB2920:
.LBI2920:
	.loc 5 554 19 view .LVU203
.LBB2921:
.LBI2921:
	.loc 6 131 8 view .LVU204
	.loc 6 131 8 is_stmt 0 view .LVU205
.LBE2921:
.LBE2920:
.LBE2919:
.LBB2928:
.LBB2929:
.LBB2930:
.LBB2931:
.LBB2932:
# /usr/include/boost/multi_array/iterator.hpp:131:   void increment() { ++idx_; }
	.loc 6 131 22 view .LVU206
	movq	56(%rsp), %rax	# %sfp, __first
.LBE2932:
.LBE2931:
.LBE2930:
.LBE2929:
.LBE2928:
.LBB2941:
.LBB2926:
.LBB2924:
.LBB2922:
	addq	$1, %r8	#, tmp163
.LBE2922:
.LBE2924:
.LBE2926:
.LBE2941:
.LBB2942:
.LBB2939:
.LBB2937:
.LBB2935:
.LBB2933:
	addq	$1, %rdi	#, _13
.LBE2933:
.LBE2935:
.LBE2937:
.LBE2939:
.LBE2942:
.LBB2943:
.LBB2927:
.LBB2925:
.LBB2923:
	movq	%r8, (%rcx)	# tmp163, MEM[(index *)__result_7(D)]
.LVL42:
	.loc 6 131 22 view .LVU207
.LBE2923:
.LBE2925:
.LBE2927:
.LBE2943:
.LBB2944:
.LBI2928:
	.loc 5 664 18 is_stmt 1 view .LVU208
.LBB2940:
.LBB2938:
.LBI2930:
	.loc 5 554 19 view .LVU209
.LBB2936:
.LBI2931:
	.loc 6 131 8 view .LVU210
.LBB2934:
# /usr/include/boost/multi_array/iterator.hpp:131:   void increment() { ++idx_; }
	.loc 6 131 22 is_stmt 0 view .LVU211
	movq	%rdi, (%rax)	# _13, MEM[(index *)__first_3(D)]
.LVL43:
	.loc 6 131 22 view .LVU212
.LBE2934:
.LBE2936:
.LBE2938:
.LBE2940:
.LBE2944:
	.loc 4 311 19 is_stmt 1 view .LVU213
.LBB2945:
	.loc 5 901 3 view .LVU214
.LBB2743:
	.loc 5 566 19 view .LVU215
.LBB2741:
	.loc 6 135 8 view .LVU216
.LBB2739:
# /usr/include/boost/multi_array/iterator.hpp:142:         std::equal(strides_,strides_+N,rhs.strides_) ) &&
	.loc 6 142 56 is_stmt 0 view .LVU217
	cmpq	%rdi, 48(%rsp)	# _13, %sfp
	jne	.L11	#,
.LVL44:
.L38:
# /usr/include/boost/multi_array/iterator.hpp:137:     return (idx_ == rhs.idx_) &&
	.loc 6 137 31 view .LVU218
	movq	64(%rsp), %rax	# %sfp, __last
	movq	32(%rsp), %rsi	# %sfp, pretmp_74
	cmpq	%rsi, 8(%rax)	# pretmp_74, MEM[(const struct array_iterator &)__last_4(D)].base_
	jne	.L11	#,
# /usr/include/boost/multi_array/iterator.hpp:139:       ( (extents_ == rhs.extents_) ||
	.loc 6 139 26 view .LVU219
	movq	16(%rax), %rax	# MEM[(const struct array_iterator &)__last_4(D)].extents_, _25
# /usr/include/boost/multi_array/iterator.hpp:138:       (base_ == rhs.base_) &&
	.loc 6 138 28 view .LVU220
	cmpq	%rbp, %rax	# pretmp_186, _25
	je	.L12	#,
.LVL45:
.LBB2722:
.LBI2722:
	.loc 4 1059 5 is_stmt 1 view .LVU221
.LBB2723:
.LBI2723:
	.loc 4 841 5 view .LVU222
.LBB2724:
.LBB2725:
.LBI2725:
	.loc 4 831 2 view .LVU223
.LBB2726:
# /usr/include/c++/9/bits/stl_algobase.h:834: 	    return !__builtin_memcmp(__first1, __first2, sizeof(_Tp) * __len);
	.loc 4 834 30 is_stmt 0 view .LVU224
	movq	0(%rbp), %rdx	# MEM[(void *)pretmp_186], MEM[(void *)pretmp_186]
	movq	8(%rbp), %rsi	# MEM[(void *)pretmp_186], tmp174
	xorq	(%rax), %rdx	# MEM[(void *)_25], MEM[(void *)pretmp_186]
	xorq	8(%rax), %rsi	# MEM[(void *)_25], tmp151
	orq	%rdx, %rsi	# tmp152, tmp151
	jne	.L11	#,
.LVL46:
.L12:
	.loc 4 834 30 view .LVU225
.LBE2726:
.LBE2725:
.LBE2724:
.LBE2723:
.LBE2722:
# /usr/include/boost/multi_array/iterator.hpp:141:       ( (strides_ == rhs.strides_) ||
	.loc 6 141 26 view .LVU226
	movq	64(%rsp), %rax	# %sfp, __last
	movq	24(%rax), %rax	# MEM[(const struct array_iterator &)__last_4(D)].strides_, _29
# /usr/include/boost/multi_array/iterator.hpp:140:         std::equal(extents_,extents_+N,rhs.extents_) ) &&
	.loc 6 140 56 view .LVU227
	cmpq	%r15, %rax	# pretmp_188, _29
	je	.L15	#,
.LVL47:
.LBB2727:
.LBI2727:
	.loc 4 1059 5 is_stmt 1 view .LVU228
.LBB2728:
.LBI2728:
	.loc 4 841 5 view .LVU229
.LBB2729:
.LBB2730:
.LBI2730:
	.loc 4 831 2 view .LVU230
.LBB2731:
# /usr/include/c++/9/bits/stl_algobase.h:834: 	    return !__builtin_memcmp(__first1, __first2, sizeof(_Tp) * __len);
	.loc 4 834 30 is_stmt 0 view .LVU231
	movq	(%r15), %rdx	# MEM[(void *)pretmp_188], MEM[(void *)pretmp_188]
	movq	8(%r15), %rsi	# MEM[(void *)pretmp_188], tmp176
	xorq	(%rax), %rdx	# MEM[(void *)_29], MEM[(void *)pretmp_188]
	xorq	8(%rax), %rsi	# MEM[(void *)_29], tmp155
	orq	%rdx, %rsi	# tmp156, tmp155
	jne	.L11	#,
.LVL48:
.L15:
	.loc 4 834 30 view .LVU232
.LBE2731:
.LBE2730:
.LBE2729:
.LBE2728:
.LBE2727:
.LBB2732:
.LBI2732:
	.loc 6 135 8 is_stmt 1 view .LVU233
.LBB2733:
# /usr/include/boost/multi_array/iterator.hpp:143:       ( (index_base_ == rhs.index_base_) ||
	.loc 6 143 29 is_stmt 0 view .LVU234
	movq	64(%rsp), %rax	# %sfp, __last
	movq	32(%rax), %rax	# MEM[(const struct array_iterator &)__last_4(D)].index_base_, _35
# /usr/include/boost/multi_array/iterator.hpp:142:         std::equal(strides_,strides_+N,rhs.strides_) ) &&
	.loc 6 142 56 view .LVU235
	cmpq	%rbx, %rax	# pretmp_190, _35
	je	.L18	#,
.LVL49:
.LBB2734:
.LBI2734:
	.loc 4 1059 5 is_stmt 1 view .LVU236
.LBB2735:
.LBI2735:
	.loc 4 841 5 view .LVU237
.LBB2736:
.LBB2737:
.LBI2737:
	.loc 4 831 2 view .LVU238
.LBB2738:
# /usr/include/c++/9/bits/stl_algobase.h:834: 	    return !__builtin_memcmp(__first1, __first2, sizeof(_Tp) * __len);
	.loc 4 834 30 is_stmt 0 view .LVU239
	movq	(%rbx), %rdx	# MEM[(void *)pretmp_190], MEM[(void *)pretmp_190]
	movq	8(%rbx), %rsi	# MEM[(void *)pretmp_190], tmp178
	xorq	(%rax), %rdx	# MEM[(void *)_35], MEM[(void *)pretmp_190]
	xorq	8(%rax), %rsi	# MEM[(void *)_35], tmp159
	orq	%rdx, %rsi	# tmp160, tmp159
	jne	.L11	#,
.LVL50:
.L18:
	.loc 4 834 30 view .LVU240
.LBE2738:
.LBE2737:
.LBE2736:
.LBE2735:
.LBE2734:
.LBE2733:
.LBE2732:
.LBE2739:
.LBE2741:
.LBE2743:
.LBE2945:
# /usr/include/c++/9/bits/stl_algobase.h:313: 	  return __result;
	.loc 4 313 11 view .LVU241
	movq	72(%rsp), %rbx	# %sfp, <retval>
	movq	32(%rcx), %rax	# *__result_7(D), *__result_7(D)
	movdqu	(%rcx), %xmm1	# *__result_7(D), tmp235
	movdqu	16(%rcx), %xmm2	# *__result_7(D), tmp237
	movq	%rax, 32(%rbx)	# *__result_7(D), *_6(D)
# /usr/include/c++/9/bits/stl_algobase.h:314: 	}
	.loc 4 314 2 view .LVU242
	movq	%rbx, %rax	# <retval>,
# /usr/include/c++/9/bits/stl_algobase.h:313: 	  return __result;
	.loc 4 313 11 view .LVU243
	movups	%xmm1, (%rbx)	# tmp235, *_6(D)
	movups	%xmm2, 16(%rbx)	# tmp237, *_6(D)
# /usr/include/c++/9/bits/stl_algobase.h:314: 	}
	.loc 4 314 2 view .LVU244
	addq	$88, %rsp	#,
	.cfi_remember_state
	.cfi_def_cfa_offset 56
	popq	%rbx	#
	.cfi_def_cfa_offset 48
	popq	%rbp	#
	.cfi_def_cfa_offset 40
	popq	%r12	#
	.cfi_def_cfa_offset 32
	popq	%r13	#
	.cfi_def_cfa_offset 24
	popq	%r14	#
	.cfi_def_cfa_offset 16
	popq	%r15	#
	.cfi_def_cfa_offset 8
	ret	
.LVL51:
.L45:
	.cfi_restore_state
.LBB2946:
.LBB2909:
.LBB2907:
.LBB2898:
.LBB2887:
.LBB2872:
.LBB2871:
.LBB2864:
.LBB2863:
.LBB2861:
.LBB2859:
.LBB2857:
.LBB2855:
.LBB2853:
.LBB2851:
.LBB2848:
.LBI2848:
	.loc 1 170 13 is_stmt 1 view .LVU245
.LBB2849:
# /usr/include/boost/multi_array/base.hpp:178:     BOOST_ASSERT(size_type(idx - index_bases[0]) < extents[0]);
	.loc 1 178 5 is_stmt 0 view .LVU246
	movl	$.LC0, %ecx	#,
	movl	$178, %edx	#,
	movl	$.LC1, %esi	#,
	movl	$.LC2, %edi	#,
	call	__assert_fail	#
.LVL52:
.L44:
	.loc 1 178 5 view .LVU247
.LBE2849:
.LBE2848:
.LBE2851:
.LBE2853:
.LBE2855:
.LBE2857:
.LBE2859:
.LBE2861:
.LBB2862:
.LBB2840:
.LBB2838:
.LBB2836:
.LBB2834:
.LBB2832:
	movl	$.LC9, %ecx	#,
	movl	$178, %edx	#,
	movl	$.LC1, %esi	#,
.LVL53:
	.loc 1 178 5 view .LVU248
	movl	$.LC2, %edi	#,
	call	__assert_fail	#
.LVL54:
.L43:
	.loc 1 178 5 view .LVU249
.LBE2832:
.LBE2834:
.LBE2836:
.LBE2838:
.LBE2840:
.LBE2862:
.LBE2863:
.LBE2864:
.LBE2871:
.LBE2872:
.LBE2887:
.LBE2898:
.LBE2907:
# /usr/include/boost/multi_array/subarray.hpp:235:     BOOST_ASSERT(std::equal(other.shape(),other.shape()+this->num_dimensions(),
	.loc 3 235 5 view .LVU250
	movl	$.LC6, %ecx	#,
	movl	$235, %edx	#,
	movl	$.LC7, %esi	#,
	movl	$.LC8, %edi	#,
	call	__assert_fail	#
.LVL55:
.L42:
	.loc 3 235 5 view .LVU251
.LBE2909:
.LBE2946:
.LBB2947:
.LBB2796:
.LBB2792:
.LBB2788:
.LBB2784:
.LBB2781:
# /usr/include/boost/multi_array/base.hpp:136:     BOOST_ASSERT(size_type(idx - index_bases[0]) < extents[0]);
	.loc 1 136 5 view .LVU252
	movl	$.LC3, %ecx	#,
.LVL56:
	.loc 1 136 5 view .LVU253
	movl	$136, %edx	#,
	movl	$.LC1, %esi	#,
	movl	$.LC2, %edi	#,
	call	__assert_fail	#
.LVL57:
.L41:
# /usr/include/boost/multi_array/base.hpp:135:     BOOST_ASSERT(idx - index_bases[0] >= 0);
	.loc 1 135 5 view .LVU254
	movl	$.LC3, %ecx	#,
.LVL58:
	.loc 1 135 5 view .LVU255
	movl	$135, %edx	#,
	movl	$.LC1, %esi	#,
	movl	$.LC4, %edi	#,
	call	__assert_fail	#
.LVL59:
.L40:
	.loc 1 135 5 view .LVU256
.LBE2781:
.LBE2784:
.LBE2788:
.LBE2792:
.LBE2796:
.LBE2947:
.LBB2948:
.LBB2768:
.LBB2765:
.LBB2762:
.LBB2759:
.LBB2756:
# /usr/include/boost/multi_array/base.hpp:136:     BOOST_ASSERT(size_type(idx - index_bases[0]) < extents[0]);
	.loc 1 136 5 view .LVU257
	movl	$.LC5, %ecx	#,
	movl	$136, %edx	#,
	movl	$.LC1, %esi	#,
	movl	$.LC2, %edi	#,
.LVL60:
	.loc 1 136 5 view .LVU258
	call	__assert_fail	#
.LVL61:
.L39:
# /usr/include/boost/multi_array/base.hpp:135:     BOOST_ASSERT(idx - index_bases[0] >= 0);
	.loc 1 135 5 view .LVU259
	movl	$.LC5, %ecx	#,
	movl	$135, %edx	#,
	movl	$.LC1, %esi	#,
	movl	$.LC4, %edi	#,
.LVL62:
	.loc 1 135 5 view .LVU260
	call	__assert_fail	#
.LVL63:
	.loc 1 135 5 view .LVU261
.LBE2756:
.LBE2759:
.LBE2762:
.LBE2765:
.LBE2768:
.LBE2948:
	.cfi_endproc
.LFE6027:
	.size	_ZNSt11__copy_moveILb0ELb0EN5boost9iterators6detail32iterator_category_with_traversalISt18input_iterator_tagNS1_27random_access_traversal_tagEEEE8__copy_mINS0_6detail11multi_array14array_iteratorIdPKdN4mpl_6size_tILm2EEENSA_15const_sub_arrayIdLm1ESD_EES5_EENSB_IdPdSG_NSA_9sub_arrayIdLm1EEES5_EEEET0_T_SP_SO_, .-_ZNSt11__copy_moveILb0ELb0EN5boost9iterators6detail32iterator_category_with_traversalISt18input_iterator_tagNS1_27random_access_traversal_tagEEEE8__copy_mINS0_6detail11multi_array14array_iteratorIdPKdN4mpl_6size_tILm2EEENSA_15const_sub_arrayIdLm1ESD_EES5_EENSB_IdPdSG_NSA_9sub_arrayIdLm1EEES5_EEEET0_T_SP_SO_
	.section	.rodata._ZN5boost11multi_arrayIdLm2ESaIdEE6resizeERKNS_6detail11multi_array10extent_genILm2EEE.str1.8,"aMS",@progbits,1
	.align 8
.LC10:
	.string	"const T& boost::array<T, N>::operator[](boost::array<T, N>::size_type) const [with T = bool; long unsigned int N = 2; boost::array<T, N>::const_reference = const bool&; boost::array<T, N>::size_type = long unsigned int]"
	.section	.rodata._ZN5boost11multi_arrayIdLm2ESaIdEE6resizeERKNS_6detail11multi_array10extent_genILm2EEE.str1.1,"aMS",@progbits,1
.LC11:
	.string	"/usr/include/boost/array.hpp"
.LC12:
	.string	"(i < N)&&(\"out of range\")"
	.section	.rodata._ZN5boost11multi_arrayIdLm2ESaIdEE6resizeERKNS_6detail11multi_array10extent_genILm2EEE.str1.8
	.align 8
.LC14:
	.ascii	"ArrayRef boost::detail::multi_array::multi_array_impl_base<T"
	.ascii	", NumDims>::generate_array_view(boost::type<Reference>, cons"
	.ascii	"t boost::detail::multi_array::index_gen<NumDims, NDims>&, co"
	.ascii	"nst size_type*, const index*, const index*, TPtr) const [wit"
	.ascii	"h ArrayRef = boost::detail::multi_array::multi_array_view<do"
	.ascii	"ub"
	.string	"le, 2>; int NDims = 2; TPtr = double*; T = double; long unsigned int NumDims = 2; boost::detail::multi_array::multi_array_impl_base<T, NumDims>::size_type = long unsigned int; boost::detail::multi_array::multi_array_impl_base<T, NumDims>::index = long int]"
	.section	.rodata._ZN5boost11multi_arrayIdLm2ESaIdEE6resizeERKNS_6detail11multi_array10extent_genILm2EEE.str1.1
.LC15:
	.string	"stride != 0"
	.section	.rodata._ZN5boost11multi_arrayIdLm2ESaIdEE6resizeERKNS_6detail11multi_array10extent_genILm2EEE.str1.8
	.align 8
.LC16:
	.string	"index_bases[n] <= start && ((start <= index_bases[n]+index(extents[n])) || (start == index_bases[n] && extents[n] == 0))"
	.align 8
.LC17:
	.string	"((index_bases[n] - bound_adjustment) <= finish) && (finish <= (index_bases[n] + index(extents[n]) - bound_adjustment))"
	.align 8
.LC18:
	.string	"T& boost::array<T, N>::operator[](boost::array<T, N>::size_type) [with T = long int; long unsigned int N = 2; boost::array<T, N>::reference = long int&; boost::array<T, N>::size_type = long unsigned int]"
	.section	.rodata._ZN5boost11multi_arrayIdLm2ESaIdEE6resizeERKNS_6detail11multi_array10extent_genILm2EEE.str1.1
.LC19:
	.string	"dim == NDims"
	.section	.rodata._ZN5boost11multi_arrayIdLm2ESaIdEE6resizeERKNS_6detail11multi_array10extent_genILm2EEE.str1.8
	.align 8
.LC20:
	.string	"boost::detail::multi_array::multi_array_view<T, NumDims>& boost::detail::multi_array::multi_array_view<T, NumDims>::operator=(const boost::detail::multi_array::multi_array_view<T, NumDims>&) [with T = double; long unsigned int NumDims = 2]"
	.align 8
.LC21:
	.string	"/usr/include/boost/multi_array/view.hpp"
	.align 8
.LC22:
	.string	"std::equal(other.shape(), other.shape()+this->num_dimensions(), this->shape())"
	.section	.text._ZN5boost11multi_arrayIdLm2ESaIdEE6resizeERKNS_6detail11multi_array10extent_genILm2EEE,"axG",@progbits,_ZN5boost11multi_arrayIdLm2ESaIdEE6resizeERKNS_6detail11multi_array10extent_genILm2EEE,comdat
	.align 2
	.p2align 4
	.weak	_ZN5boost11multi_arrayIdLm2ESaIdEE6resizeERKNS_6detail11multi_array10extent_genILm2EEE
	.type	_ZN5boost11multi_arrayIdLm2ESaIdEE6resizeERKNS_6detail11multi_array10extent_genILm2EEE, @function
_ZN5boost11multi_arrayIdLm2ESaIdEE6resizeERKNS_6detail11multi_array10extent_genILm2EEE:
.LVL64:
.LFB5416:
	.file 7 "/usr/include/boost/multi_array.hpp"
	.loc 7 453 16 is_stmt 1 view -0
	.cfi_startproc
	.loc 7 453 16 is_stmt 0 view .LVU263
	pushq	%r15	#
	.cfi_def_cfa_offset 16
	.cfi_offset 15, -16
	pushq	%r14	#
	.cfi_def_cfa_offset 24
	.cfi_offset 14, -24
	pushq	%r13	#
	.cfi_def_cfa_offset 32
	.cfi_offset 13, -32
	pushq	%r12	#
	.cfi_def_cfa_offset 40
	.cfi_offset 12, -40
	movq	%rdi, %r12	# tmp395, this
	pushq	%rbp	#
	.cfi_def_cfa_offset 48
	.cfi_offset 6, -48
	pushq	%rbx	#
	.cfi_def_cfa_offset 56
	.cfi_offset 3, -56
	subq	$728, %rsp	#,
	.cfi_def_cfa_offset 784
.LVL65:
.LBB3457:
.LBI3457:
	.loc 7 219 12 is_stmt 1 view .LVU264
.LBB3458:
.LBB3459:
.LBI3459:
	.loc 2 466 12 view .LVU265
.LBB3460:
.LBI3460:
	.loc 2 118 12 view .LVU266
.LBB3461:
.LBB3462:
.LBB3463:
.LBI3463:
	.loc 1 294 3 view .LVU267
.LBB3464:
.LBI3464:
	.loc 1 143 3 view .LVU268
	.loc 1 143 3 is_stmt 0 view .LVU269
.LBE3464:
.LBE3463:
.LBB3465:
.LBB3466:
.LBB3467:
.LBB3468:
.LBB3469:
.LBB3470:
.LBB3471:
# /usr/include/boost/multi_array/extent_range.hpp:37:   index start() const { return super_type::first; }
	.file 8 "/usr/include/boost/multi_array/extent_range.hpp"
	.loc 8 37 44 view .LVU270
	movq	(%rsi), %rcx	# MEM[(const struct extent_range *)ranges_5(D)].D.47699.first, _913
.LBE3471:
.LBE3470:
.LBE3469:
.LBE3468:
.LBE3467:
.LBB3480:
.LBB3481:
.LBB3482:
.LBB3483:
# /usr/include/boost/multi_array/extent_range.hpp:41:   size_type size() const { return super_type::second - super_type::first; }
	.loc 8 41 54 view .LVU271
	movq	8(%rsi), %rbx	# MEM[(const struct extent_range *)ranges_5(D)].D.47699.second, _896
.LBE3483:
.LBE3482:
.LBE3481:
.LBE3480:
.LBE3466:
.LBE3465:
# /usr/include/boost/multi_array/multi_array_ref.hpp:122:     base_(base), storage_(so) {
	.loc 2 122 29 view .LVU272
	movq	24(%rdi), %rdx	# MEM[(const struct general_storage_order &)this_3(D) + 8], MEM[(const struct general_storage_order &)this_3(D) + 8]
	movq	8(%rdi), %rax	# MEM[(const struct general_storage_order &)this_3(D) + 8], tmp391
	movq	$0, 592(%rsp)	#, MEM[(struct const_multi_array_ref *)&new_array].base_
.LBB3704:
.LBB3681:
.LBB3503:
.LBB3496:
.LBB3489:
.LBB3484:
# /usr/include/boost/multi_array/extent_range.hpp:41:   size_type size() const { return super_type::second - super_type::first; }
	.loc 8 41 54 view .LVU273
	subq	%rcx, %rbx	# _913, _896
.LBE3484:
.LBE3489:
.LBE3496:
.LBE3503:
.LBB3504:
.LBB3477:
# /usr/include/c++/9/bits/stl_algo.h:4337: 	*__result = __unary_op(*__first);
	.file 9 "/usr/include/c++/9/bits/stl_algo.h"
	.loc 9 4337 2 view .LVU274
	movq	%rcx, 656(%rsp)	# _913, MEM[(long int *)&new_array + 64B]
.LBE3477:
.LBE3504:
.LBB3505:
.LBB3497:
.LBB3490:
.LBB3485:
# /usr/include/boost/multi_array/extent_range.hpp:41:   size_type size() const { return super_type::second - super_type::first; }
	.loc 8 41 54 view .LVU275
	movq	24(%rsi), %rcx	# MEM[(const struct extent_range *)ranges_5(D) + 16B].D.47699.second, MEM[(const struct extent_range *)ranges_5(D) + 16B].D.47699.second
.LBE3485:
.LBE3490:
.LBE3497:
.LBE3505:
.LBE3681:
.LBE3704:
# /usr/include/boost/multi_array/multi_array_ref.hpp:122:     base_(base), storage_(so) {
	.loc 2 122 29 view .LVU276
	movq	%rdx, 616(%rsp)	# MEM[(const struct general_storage_order &)this_3(D) + 8], MEM[(struct const_multi_array_ref *)&new_array].storage_
.LVL66:
.LBB3705:
.LBI3465:
	.loc 2 362 8 is_stmt 1 view .LVU277
.LBB3682:
.LBB3506:
.LBI3506:
	.file 10 "/usr/include/boost/functional.hpp"
	.loc 10 517 37 view .LVU278
.LBB3507:
.LBI3507:
	.loc 10 473 18 view .LVU279
	.loc 10 473 18 is_stmt 0 view .LVU280
.LBE3507:
.LBE3506:
.LBB3508:
.LBI3467:
	.loc 9 4326 5 is_stmt 1 view .LVU281
.LBB3478:
	.loc 9 4336 22 view .LVU282
.LBB3475:
.LBI3469:
	.loc 10 478 11 view .LVU283
.LBB3473:
.LBI3470:
	.loc 8 37 9 view .LVU284
	.loc 8 37 9 is_stmt 0 view .LVU285
.LBE3473:
.LBE3475:
	.loc 9 4336 7 is_stmt 1 view .LVU286
	.loc 9 4336 22 view .LVU287
.LBB3476:
	.loc 10 478 11 view .LVU288
.LBB3474:
	.loc 8 37 9 view .LVU289
.LBB3472:
# /usr/include/boost/multi_array/extent_range.hpp:37:   index start() const { return super_type::first; }
	.loc 8 37 44 is_stmt 0 view .LVU290
	movq	16(%rsi), %rdx	# MEM[(const struct extent_range *)ranges_5(D) + 16B].D.47699.first, _920
.LVL67:
	.loc 8 37 44 view .LVU291
.LBE3472:
.LBE3474:
.LBE3476:
.LBE3478:
.LBE3508:
.LBE3682:
.LBE3705:
# /usr/include/boost/multi_array/multi_array_ref.hpp:122:     base_(base), storage_(so) {
	.loc 2 122 29 view .LVU292
	movdqu	8(%rdi), %xmm0	# MEM[(const struct general_storage_order &)this_3(D) + 8], tmp419
.LBB3706:
.LBB3683:
.LBB3509:
.LBB3498:
.LBB3491:
.LBB3486:
# /usr/include/boost/multi_array/extent_range.hpp:41:   size_type size() const { return super_type::second - super_type::first; }
	.loc 8 41 54 view .LVU293
	movq	%rcx, %rdi	# MEM[(const struct extent_range *)ranges_5(D) + 16B].D.47699.second, MEM[(const struct extent_range *)ranges_5(D) + 16B].D.47699.second
.LVL68:
	.loc 8 41 54 view .LVU294
	movq	%rbx, 8(%rsp)	# _896, %sfp
	subq	%rdx, %rdi	# _920, MEM[(const struct extent_range *)ranges_5(D) + 16B].D.47699.second
.LBE3486:
.LBE3491:
.LBE3498:
.LBE3509:
.LBB3510:
.LBB3479:
# /usr/include/c++/9/bits/stl_algo.h:4337: 	*__result = __unary_op(*__first);
	.loc 9 4337 2 view .LVU295
	movq	%rdx, 664(%rsp)	# _920, MEM[(long int *)&new_array + 72B]
	.loc 9 4336 7 is_stmt 1 view .LVU296
.LVL69:
	.loc 9 4336 22 view .LVU297
	.loc 9 4336 22 is_stmt 0 view .LVU298
.LBE3479:
.LBE3510:
.LBE3683:
.LBE3706:
.LBE3462:
.LBE3461:
.LBE3460:
.LBE3459:
.LBE3458:
.LBE3457:
	.loc 9 4336 22 is_stmt 1 view .LVU299
.LBB3852:
.LBB3831:
.LBB3784:
.LBB3765:
.LBB3746:
.LBB3727:
.LBB3707:
.LBB3684:
.LBB3511:
.LBB3499:
.LBI3481:
	.loc 10 478 11 view .LVU300
.LBB3492:
.LBI3482:
	.loc 8 41 13 view .LVU301
	.loc 8 41 13 is_stmt 0 view .LVU302
.LBE3492:
.LBE3499:
.LBE3511:
.LBE3684:
.LBE3707:
.LBE3727:
.LBE3746:
.LBE3765:
.LBE3784:
.LBE3831:
.LBE3852:
	.loc 9 4336 7 is_stmt 1 view .LVU303
	.loc 9 4336 22 view .LVU304
.LBB3853:
.LBB3832:
.LBB3785:
.LBB3766:
.LBB3747:
.LBB3728:
.LBB3708:
.LBB3685:
.LBB3512:
.LBB3500:
	.loc 10 478 11 view .LVU305
.LBB3493:
	.loc 8 41 13 view .LVU306
.LBE3493:
.LBE3500:
.LBE3512:
.LBB3513:
.LBB3514:
.LBB3515:
.LBB3516:
.LBB3517:
# /usr/include/c++/9/bits/stl_function.h:192:       { return __x * __y; }
	.file 11 "/usr/include/c++/9/bits/stl_function.h"
	.loc 11 192 22 is_stmt 0 view .LVU307
	movq	%rbx, %rdx	# _896, tmp266
	imulq	%rdi, %rdx	# _906, tmp266
.LBE3517:
.LBE3516:
.LBE3515:
.LBE3514:
.LBE3513:
.LBB3662:
.LBB3501:
.LBB3494:
.LBB3487:
# /usr/include/boost/multi_array/extent_range.hpp:41:   size_type size() const { return super_type::second - super_type::first; }
	.loc 8 41 54 view .LVU308
	movq	%rdi, 32(%rsp)	# _906, %sfp
.LVL70:
	.loc 8 41 54 view .LVU309
.LBE3487:
.LBE3494:
.LBE3501:
.LBE3662:
.LBE3685:
.LBE3708:
.LBE3728:
.LBE3747:
.LBE3766:
.LBE3785:
.LBE3832:
.LBE3853:
	.loc 9 4336 7 is_stmt 1 view .LVU310
	.loc 9 4336 22 view .LVU311
.LBB3854:
.LBB3833:
.LBB3786:
.LBB3767:
.LBB3748:
.LBB3729:
.LBB3709:
.LBB3686:
.LBB3663:
.LBB3645:
.LBB3520:
.LBB3521:
	.file 12 "/usr/include/boost/multi_array/algorithm.hpp"
	.loc 12 55 17 view .LVU312
# /usr/include/boost/multi_array/algorithm.hpp:56:     *result = *first;
	.loc 12 56 5 is_stmt 0 view .LVU313
	movq	%rbx, 624(%rsp)	# _896, MEM[(long unsigned int *)&new_array + 32B]
.LVL71:
	.loc 12 55 3 is_stmt 1 view .LVU314
	.loc 12 55 17 view .LVU315
# /usr/include/boost/multi_array/algorithm.hpp:56:     *result = *first;
	.loc 12 56 5 is_stmt 0 view .LVU316
	movq	%rdi, 632(%rsp)	# _906, MEM[(long unsigned int *)&new_array + 40B]
.LVL72:
	.loc 12 55 3 is_stmt 1 view .LVU317
	.loc 12 55 17 view .LVU318
	.loc 12 55 17 is_stmt 0 view .LVU319
.LBE3521:
.LBE3520:
.LBE3645:
.LBE3663:
.LBE3686:
.LBE3709:
.LBE3729:
.LBE3748:
.LBE3767:
.LBE3786:
.LBE3833:
.LBE3854:
	.file 13 "/usr/include/c++/9/bits/stl_numeric.h"
	.loc 13 165 22 is_stmt 1 view .LVU320
.LBB3855:
.LBB3834:
.LBB3787:
.LBB3768:
.LBB3749:
.LBB3730:
.LBB3710:
.LBB3687:
.LBB3664:
.LBB3646:
.LBB3522:
.LBB3518:
.LBI3516:
	.loc 11 191 7 view .LVU321
	.loc 11 191 7 is_stmt 0 view .LVU322
.LBE3518:
.LBE3522:
.LBE3646:
.LBE3664:
.LBE3687:
.LBE3710:
.LBE3730:
.LBE3749:
.LBE3768:
.LBE3787:
.LBE3834:
.LBE3855:
	.loc 13 165 7 is_stmt 1 view .LVU323
	.loc 13 165 22 view .LVU324
.LBB3856:
.LBB3835:
.LBB3788:
.LBB3769:
.LBB3750:
.LBB3731:
.LBB3711:
.LBB3688:
.LBB3665:
.LBB3647:
.LBB3523:
.LBB3519:
	.loc 11 191 7 view .LVU325
	.loc 11 191 7 is_stmt 0 view .LVU326
.LBE3519:
.LBE3523:
.LBE3647:
.LBE3665:
.LBE3688:
.LBE3711:
.LBE3731:
.LBE3750:
.LBE3769:
.LBE3788:
.LBE3835:
.LBE3856:
	.loc 13 165 7 is_stmt 1 view .LVU327
	.loc 13 165 22 view .LVU328
.LBB3857:
.LBB3836:
.LBB3789:
.LBB3770:
.LBB3751:
.LBB3732:
.LBB3712:
.LBB3689:
.LBB3666:
.LBB3648:
# /usr/include/boost/multi_array/multi_array_ref.hpp:397:     num_elements_ = std::accumulate(extent_list_.begin(),extent_list_.end(),
	.loc 2 397 5 is_stmt 0 view .LVU329
	movq	%rdx, 688(%rsp)	# tmp266, MEM[(struct const_multi_array_ref *)&new_array].num_elements_
.LVL73:
.LBB3524:
.LBI3524:
	.loc 1 330 8 is_stmt 1 view .LVU330
.LBB3525:
.LBB3526:
	.loc 1 335 29 view .LVU331
.LBB3527:
.LBB3528:
.LBI3528:
	.file 14 "/usr/include/boost/multi_array/storage_order.hpp"
	.loc 14 61 15 view .LVU332
.LBB3529:
.LBB3530:
.LBI3530:
	.file 15 "/usr/include/boost/array.hpp"
	.loc 15 121 45 view .LVU333
	.loc 15 121 45 is_stmt 0 view .LVU334
.LBE3530:
.LBE3529:
.LBE3528:
.LBB3533:
.LBI3533:
	.loc 14 62 10 is_stmt 1 view .LVU335
.LBB3534:
.LBB3535:
.LBI3535:
	.loc 15 121 45 view .LVU336
.LBE3535:
.LBE3534:
.LBE3533:
.LBE3527:
.LBE3526:
.LBE3525:
.LBE3524:
.LBE3648:
.LBE3666:
.LBE3689:
.LBE3712:
# /usr/include/boost/multi_array/multi_array_ref.hpp:122:     base_(base), storage_(so) {
	.loc 2 122 29 is_stmt 0 view .LVU337
	movups	%xmm0, 600(%rsp)	# tmp419, MEM[(struct const_multi_array_ref *)&new_array].storage_
.LBB3713:
.LBB3690:
.LBB3667:
.LBB3649:
.LBB3562:
.LBB3560:
.LBB3557:
.LBB3553:
.LBB3545:
.LBB3542:
.LBB3539:
.LBB3536:
# /usr/include/boost/array.hpp:123:             return BOOST_ASSERT_MSG( i < N, "out of range" ), elems[i]; 
	.loc 15 123 20 view .LVU338
	cmpq	$1, %rax	#, _595
	ja	.L47	#,
.LVL74:
	.loc 15 123 20 view .LVU339
.LBE3536:
.LBE3539:
.LBE3542:
.LBE3545:
.LBE3553:
.LBE3557:
# /usr/include/boost/multi_array/base.hpp:334:     index stride = 1;
	.loc 1 334 11 view .LVU340
	cmpb	$1, 616(%rsp,%rax)	#, new_array
	sbbq	%rdx, %rdx	# prephitmp_593
	orq	$1, %rdx	#, prephitmp_593
.LVL75:
.LBB3558:
.LBB3554:
.LBB3546:
.LBI3546:
	.loc 15 116 19 is_stmt 1 view .LVU341
	.loc 15 116 19 is_stmt 0 view .LVU342
.LBE3546:
# /usr/include/boost/multi_array/base.hpp:343:       stride_list[storage.ordering(n)] = stride * stride_sign;
	.loc 1 343 7 view .LVU343
	movq	%rdx, 640(%rsp,%rax,8)	# prephitmp_593, new_array
.LVL76:
.LBB3547:
.LBI3547:
	.loc 15 116 19 is_stmt 1 view .LVU344
	.loc 15 116 19 is_stmt 0 view .LVU345
.LBE3547:
# /usr/include/boost/multi_array/base.hpp:345:       stride *= extent_list[storage.ordering(n)];
	.loc 1 345 7 view .LVU346
	movq	624(%rsp,%rax,8), %rdx	# new_array, stride
.LVL77:
	.loc 1 345 7 view .LVU347
.LBE3554:
	.loc 1 335 5 is_stmt 1 view .LVU348
	.loc 1 335 29 view .LVU349
.LBB3555:
.LBB3548:
	.loc 14 61 15 view .LVU350
.LBB3532:
.LBB3531:
	.loc 15 121 45 view .LVU351
	.loc 15 121 45 is_stmt 0 view .LVU352
.LBE3531:
# /usr/include/boost/multi_array/storage_order.hpp:61:     size_type ordering(size_type dim) const { return ordering_[dim]; }
	.loc 14 61 67 view .LVU353
	movq	608(%rsp), %rax	# new_array, _209
.LVL78:
	.loc 14 61 67 view .LVU354
.LBE3532:
.LBE3548:
.LBB3549:
	.loc 14 62 10 is_stmt 1 view .LVU355
.LBB3543:
.LBB3540:
	.loc 15 121 45 view .LVU356
.LBB3537:
# /usr/include/boost/array.hpp:123:             return BOOST_ASSERT_MSG( i < N, "out of range" ), elems[i]; 
	.loc 15 123 20 is_stmt 0 view .LVU357
	cmpq	$1, %rax	#, _209
	ja	.L47	#,
.LVL79:
	.loc 15 123 20 view .LVU358
.LBE3537:
.LBE3540:
.LBE3543:
.LBE3549:
# /usr/include/boost/multi_array/base.hpp:338:       if (!storage.ascending(storage.ordering(n)))
	.loc 1 338 7 view .LVU359
	cmpb	$0, 616(%rsp,%rax)	#, new_array
	jne	.L50	#,
.LVL80:
	.loc 1 338 7 view .LVU360
	negq	%rdx	# stride
.LVL81:
.L50:
.LBB3550:
	.loc 15 116 19 is_stmt 1 view .LVU361
	.loc 15 116 19 is_stmt 0 view .LVU362
.LBE3550:
# /usr/include/boost/multi_array/base.hpp:343:       stride_list[storage.ordering(n)] = stride * stride_sign;
	.loc 1 343 7 view .LVU363
	movq	%rdx, 640(%rsp,%rax,8)	# stride, new_array
.LVL82:
.LBB3551:
	.loc 15 116 19 is_stmt 1 view .LVU364
	.loc 15 116 19 is_stmt 0 view .LVU365
.LBE3551:
.LBE3555:
	.loc 1 335 5 is_stmt 1 view .LVU366
	.loc 1 335 29 view .LVU367
	.loc 1 335 29 is_stmt 0 view .LVU368
.LBE3558:
.LBE3560:
.LBE3562:
.LBB3563:
.LBI3563:
	.loc 1 354 3 is_stmt 1 view .LVU369
.LBB3564:
.LBB3565:
.LBI3565:
	.loc 1 369 3 view .LVU370
.LBB3566:
.LBB3567:
.LBI3567:
	.loc 14 64 10 view .LVU371
.LBB3568:
.LBI3568:
	.loc 13 158 5 view .LVU372
	.loc 13 158 5 is_stmt 0 view .LVU373
.LBE3568:
.LBE3567:
.LBE3566:
.LBE3565:
.LBE3564:
.LBE3563:
.LBE3649:
.LBE3667:
.LBE3690:
.LBE3713:
.LBE3732:
.LBE3751:
.LBE3770:
.LBE3789:
.LBE3836:
.LBE3857:
	.loc 13 165 22 is_stmt 1 view .LVU374
.LBB3858:
.LBB3837:
.LBB3790:
.LBB3771:
.LBB3752:
.LBB3733:
.LBB3714:
.LBB3691:
.LBB3668:
.LBB3650:
.LBB3606:
.LBB3599:
.LBB3594:
.LBB3589:
.LBB3577:
.LBB3574:
.LBB3569:
.LBI3569:
	.loc 11 790 7 view .LVU375
	.loc 11 790 7 is_stmt 0 view .LVU376
	movq	640(%rsp), %rax	# new_array, pretmp_563
	movq	656(%rsp), %rsi	# new_array, pretmp_803
.LVL83:
	.loc 11 790 7 view .LVU377
	movq	664(%rsp), %rbx	# new_array, pretmp_143
	movq	648(%rsp), %rdi	# new_array, pretmp_195
.LVL84:
	.loc 11 790 7 view .LVU378
	movq	%rax, 80(%rsp)	# pretmp_563, %sfp
	imulq	%rsi, %rax	# pretmp_803, tmp267
	movq	%rbx, 48(%rsp)	# pretmp_143, %sfp
	movzbl	617(%rsp), %ecx	# new_array, pretmp_564
	imulq	%rdi, %rbx	# pretmp_195, tmp269
	movq	%rdi, 88(%rsp)	# pretmp_195, %sfp
	movq	%rsi, 24(%rsp)	# pretmp_803, %sfp
	negq	%rax	# tmp268
	subq	%rbx, %rax	# tmp269, tmp268
.LBB3570:
# /usr/include/c++/9/bits/stl_function.h:791:       { return __x && __y; }
	.loc 11 791 20 view .LVU379
	cmpb	$0, 616(%rsp)	#, MEM[(const bool &)&new_array + 24]
	movq	%rax, 16(%rsp)	# _470, %sfp
	je	.L51	#,
.LVL85:
	.loc 11 791 20 view .LVU380
.LBE3570:
.LBE3569:
.LBE3574:
.LBE3577:
.LBE3589:
.LBE3594:
.LBE3599:
.LBE3606:
.LBE3650:
.LBE3668:
.LBE3691:
.LBE3714:
.LBE3733:
.LBE3752:
.LBE3771:
.LBE3790:
.LBE3837:
.LBE3858:
	.loc 13 165 7 is_stmt 1 view .LVU381
	.loc 13 165 22 view .LVU382
.LBB3859:
.LBB3838:
.LBB3791:
.LBB3772:
.LBB3753:
.LBB3734:
.LBB3715:
.LBB3692:
.LBB3669:
.LBB3651:
.LBB3607:
.LBB3600:
.LBB3595:
.LBB3590:
.LBB3578:
.LBB3575:
.LBB3572:
	.loc 11 790 7 view .LVU383
.LBB3571:
# /usr/include/c++/9/bits/stl_function.h:791:       { return __x && __y; }
	.loc 11 791 20 is_stmt 0 view .LVU384
	testb	%cl, %cl	# pretmp_564
	jne	.L52	#,
.LVL86:
	.loc 11 791 20 view .LVU385
.LBE3571:
.LBE3572:
.LBE3575:
.LBE3578:
.LBB3579:
.LBB3580:
.LBB3581:
# /usr/include/boost/multi_array/base.hpp:377:           offset -= (extent_list[n] - 1) * stride_list[n];
	.loc 1 377 37 view .LVU386
	movq	32(%rsp), %rbx	# %sfp, _906
	leaq	-1(%rbx), %rdx	#, tmp270
# /usr/include/boost/multi_array/base.hpp:377:           offset -= (extent_list[n] - 1) * stride_list[n];
	.loc 1 377 42 view .LVU387
	imulq	%rdi, %rdx	# pretmp_195, _598
.LVL87:
	.loc 1 377 42 view .LVU388
.LBE3581:
.LBE3580:
.LBE3579:
.LBE3590:
.LBE3595:
.LBE3600:
.LBE3607:
.LBE3651:
.LBE3669:
.LBE3692:
.LBE3715:
.LBE3734:
.LBE3753:
.LBE3772:
.LBE3791:
.LBE3838:
.LBE3859:
	.loc 1 392 29 is_stmt 1 view .LVU389
	.loc 1 392 5 view .LVU390
	.loc 1 392 29 view .LVU391
	.loc 1 392 5 view .LVU392
	.loc 1 392 29 view .LVU393
.LBB3860:
.LBB3839:
.LBB3792:
.LBB3773:
.LBB3754:
.LBB3735:
.LBB3716:
.LBB3693:
.LBB3670:
.LBB3652:
.LBB3608:
.LBB3601:
# /usr/include/boost/multi_array/base.hpp:362:       calculate_indexing_offset(stride_list,index_base_list);
	.loc 1 362 60 is_stmt 0 view .LVU394
	subq	%rdx, %rax	# _598, _470
	movq	%rax, 16(%rsp)	# _470, %sfp
.LVL88:
	.loc 1 362 60 view .LVU395
.LBE3601:
.LBE3608:
# /usr/include/boost/multi_array/multi_array_ref.hpp:402:     origin_offset_ =
	.loc 2 402 5 view .LVU396
	movq	%rax, 672(%rsp)	# _470, MEM[(struct const_multi_array_ref *)&new_array].origin_offset_
.LVL89:
.LBB3609:
.LBI3609:
	.loc 1 369 3 is_stmt 1 view .LVU397
	.loc 1 369 3 is_stmt 0 view .LVU398
.LBE3609:
.LBE3652:
.LBE3670:
.LBE3693:
.LBE3716:
.LBE3735:
.LBE3754:
.LBE3773:
.LBE3792:
.LBE3839:
.LBE3860:
	.loc 13 165 22 is_stmt 1 view .LVU399
	.loc 13 165 7 view .LVU400
	.loc 13 165 22 view .LVU401
	.loc 13 165 7 view .LVU402
	.loc 13 165 22 view .LVU403
.LBB3861:
.LBB3840:
.LBB3793:
.LBB3774:
.LBB3755:
.LBB3736:
.LBB3717:
.LBB3694:
.LBB3671:
.LBB3653:
.LBB3631:
.LBB3610:
.LBB3611:
.LBB3612:
.LBB3613:
	.loc 1 375 31 view .LVU404
.LBE3613:
.LBE3612:
.LBE3611:
.LBE3610:
.LBE3631:
# /usr/include/boost/multi_array/multi_array_ref.hpp:402:     origin_offset_ =
	.loc 2 402 5 is_stmt 0 view .LVU405
	xorl	%eax, %eax	# _285
.LVL90:
.L87:
.LBB3632:
.LBB3626:
.LBB3622:
.LBB3618:
.LBB3614:
# /usr/include/boost/multi_array/base.hpp:377:           offset -= (extent_list[n] - 1) * stride_list[n];
	.loc 1 377 18 view .LVU406
	subq	%rdx, %rax	# _598, _285
	movq	%rax, 56(%rsp)	# _285, %sfp
.LVL91:
.L85:
	.loc 1 377 18 view .LVU407
.LBE3614:
.LBE3618:
.LBE3622:
.LBE3626:
.LBE3632:
# /usr/include/boost/multi_array/multi_array_ref.hpp:405:     directional_offset_ =
	.loc 2 405 5 view .LVU408
	movq	56(%rsp), %rax	# %sfp, offset
	movq	%rax, 680(%rsp)	# offset, MEM[(struct const_multi_array_ref *)&new_array].directional_offset_
.LVL92:
	.loc 2 405 5 view .LVU409
.LBE3653:
.LBE3671:
.LBE3694:
.LBE3717:
.LBE3736:
.LBE3755:
.LBE3774:
.LBE3793:
.LBB3794:
.LBI3794:
	.file 16 "/usr/include/boost/core/empty_value.hpp"
	.loc 16 107 14 is_stmt 1 view .LVU410
.LBB3795:
.LBI3795:
	.file 17 "/usr/include/c++/9/bits/allocator.h"
	.loc 17 141 7 view .LVU411
.LBB3796:
.LBI3796:
	.file 18 "/usr/include/c++/9/ext/new_allocator.h"
	.loc 18 83 7 view .LVU412
	.loc 18 83 7 is_stmt 0 view .LVU413
.LBE3796:
.LBE3795:
.LBE3794:
.LBB3797:
.LBI3797:
	.loc 7 544 8 is_stmt 1 view .LVU414
.LBB3798:
# /usr/include/boost/multi_array.hpp:545:     base_ = allocator().allocate(this->num_elements());
	.loc 7 545 11 is_stmt 0 view .LVU415
	movq	688(%rsp), %rax	# MEM[(long unsigned int *)&new_array + 96B], _140
	movq	%rax, 40(%rsp)	# _140, %sfp
.LVL93:
	.loc 7 545 11 view .LVU416
	movq	%rax, %rbx	# _140, _140
.LVL94:
.LBB3799:
.LBI3799:
	.loc 18 102 7 is_stmt 1 view .LVU417
.LBB3800:
# /usr/include/c++/9/ext/new_allocator.h:104: 	if (__n > this->max_size())
	.loc 18 104 2 is_stmt 0 view .LVU418
	movabsq	$1152921504606846975, %rax	#, tmp271
.LVL95:
	.loc 18 104 2 view .LVU419
	cmpq	%rax, %rbx	# tmp271, _140
	ja	.L118	#,
# /usr/include/c++/9/ext/new_allocator.h:114: 	return static_cast<_Tp*>(::operator new(__n * sizeof(_Tp)));
	.loc 18 114 41 view .LVU420
	movq	40(%rsp), %r15	# %sfp, _140
	leaq	0(,%r15,8), %rbp	#, _141
	movq	%rbp, %rdi	# _141,
	call	_Znwm	#
.LVL96:
.LBE3800:
.LBE3799:
# /usr/include/boost/multi_array.hpp:547:     allocated_elements_ = this->num_elements();
	.loc 7 547 5 view .LVU421
	movq	%r15, 704(%rsp)	# _140, new_array.allocated_elements_
# /usr/include/boost/multi_array.hpp:548:     detail::multi_array::construct(allocator(),base_,base_+allocated_elements_);
	.loc 7 548 35 view .LVU422
	leaq	(%rax,%rbp), %rdx	#, _145
# /usr/include/boost/multi_array.hpp:545:     base_ = allocator().allocate(this->num_elements());
	.loc 7 545 5 view .LVU423
	movq	%rax, 696(%rsp)	# _142, new_array.base_
.LBB3803:
.LBB3801:
# /usr/include/c++/9/ext/new_allocator.h:114: 	return static_cast<_Tp*>(::operator new(__n * sizeof(_Tp)));
	.loc 18 114 41 view .LVU424
	movq	%rax, %rbx	# tmp397, _142
.LVL97:
	.loc 18 114 41 view .LVU425
.LBE3801:
.LBE3803:
.LBB3804:
.LBI3804:
	.loc 2 319 8 is_stmt 1 view .LVU426
.LBB3805:
# /usr/include/boost/multi_array/multi_array_ref.hpp:319:   void set_base_ptr(TPtr new_base) { base_ = new_base; }
	.loc 2 319 38 is_stmt 0 view .LVU427
	movq	%rax, 592(%rsp)	# _142, MEM[(double * *)&new_array]
.LVL98:
	.loc 2 319 38 view .LVU428
.LBE3805:
.LBE3804:
.LBB3806:
.LBI3806:
	.file 19 "/usr/include/boost/multi_array/allocators.hpp"
	.loc 19 46 13 is_stmt 1 view .LVU429
.LBB3807:
	.loc 19 50 16 view .LVU430
	cmpq	%rdx, %rax	# _145, _142
	je	.L56	#,
	.p2align 4,,10
	.p2align 3
.L54:
.LVL99:
.LBB3808:
.LBI3808:
	.loc 19 35 13 view .LVU431
.LBB3809:
.LBI3809:
	.file 20 "/usr/include/c++/9/bits/alloc_traits.h"
	.loc 20 482 2 view .LVU432
.LBB3810:
.LBI3810:
	.loc 18 144 2 view .LVU433
	.loc 18 144 2 is_stmt 0 view .LVU434
.LBE3810:
.LBE3809:
.LBE3808:
.LBE3807:
.LBE3806:
.LBE3798:
.LBE3797:
.LBE3840:
.LBE3861:
	.file 21 "/usr/include/c++/9/new"
	.loc 21 174 3 is_stmt 1 view .LVU435
.LBB3862:
.LBB3841:
.LBB3820:
.LBB3818:
.LBB3816:
.LBB3815:
.LBB3814:
.LBB3813:
.LBB3812:
.LBB3811:
	.loc 21 174 3 is_stmt 0 view .LVU436
	movq	$0x000000000, (%rax)	#, MEM[base: ptr_426, offset: 0B]
.LVL100:
	.loc 21 174 3 view .LVU437
.LBE3811:
.LBE3812:
.LBE3813:
.LBE3814:
	.loc 19 50 5 is_stmt 1 view .LVU438
	addq	$8, %rax	#, ptr
.LVL101:
	.loc 19 50 16 view .LVU439
	cmpq	%rax, %rdx	# ptr, _145
	jne	.L54	#,
.LVL102:
.L56:
	.loc 19 50 16 is_stmt 0 view .LVU440
.LBE3815:
.LBE3816:
.LBE3818:
.LBE3820:
.LBE3841:
.LBE3862:
.LBB3863:
.LBI3863:
	.loc 9 4363 5 is_stmt 1 view .LVU441
.LBB3864:
	.loc 9 4375 23 view .LVU442
.LBB3865:
.LBI3865:
	.loc 4 198 5 view .LVU443
.LBE3865:
.LBE3864:
.LBE3863:
.LBB3869:
.LBB3870:
# /usr/include/c++/9/bits/stl_algo.h:4376: 	*__result = __binary_op(*__first1, *__first2);
	.loc 9 4376 2 is_stmt 0 view .LVU444
	movq	24(%rsp), %rdi	# %sfp, pretmp_803
	movq	8(%rsp), %rax	# %sfp, _896
	movq	$1, 384(%rsp)	#, MEM[(struct index_range *)&new_idxes + 16B]
	leaq	32(%r12), %r10	#, ivtmp.547
.LVL103:
	.loc 9 4376 2 view .LVU445
	movq	32(%rsp), %rsi	# %sfp, _906
	cmpq	%rax, 32(%r12)	# _896, MEM[(const long unsigned int &)this_3(D) + 32]
	movb	$0, 392(%rsp)	#, MEM[(struct index_range *)&new_idxes + 24B]
	leaq	304(%rsp), %r8	#, ivtmp.549
	cmovbe	32(%r12), %rax	# MEM[(const long unsigned int &)this_3(D) + 32],, prephitmp_300
.LVL104:
	.loc 9 4376 2 view .LVU446
	movq	%rdi, 368(%rsp)	# pretmp_803, MEM[(struct index_range *)&new_idxes]
	cmpq	%rsi, 40(%r12)	# _906, MEM[(const long unsigned int &)this_3(D) + 40]
	movq	%rsi, %rcx	# _906, prephitmp_58
	cmovbe	40(%r12), %rcx	# MEM[(const long unsigned int &)this_3(D) + 40],, prephitmp_58
	movq	$1, 416(%rsp)	#, MEM[(struct index_range *)&new_idxes + 48B]
.LBB3871:
.LBB3872:
# /usr/include/boost/multi_array.hpp:58:           return multi_array_types::index_range(base,base+extent_);
	.loc 7 58 58 view .LVU447
	leaq	(%rdi,%rax), %rdx	#, tmp273
.LBE3872:
.LBE3871:
# /usr/include/c++/9/bits/stl_algo.h:4376: 	*__result = __binary_op(*__first1, *__first2);
	.loc 9 4376 2 view .LVU448
	movq	48(%rsp), %rdi	# %sfp, pretmp_143
.LBE3870:
.LBE3869:
.LBB3888:
.LBB3889:
.LBB3890:
.LBB3891:
# /usr/include/boost/multi_array/base.hpp:420:     size_type dim = 0;
	.loc 1 420 15 view .LVU449
	xorl	%r13d, %r13d	# dim
# /usr/include/boost/multi_array/base.hpp:419:     index offset = 0;
	.loc 1 419 11 view .LVU450
	xorl	%r11d, %r11d	# offset
.LBE3891:
.LBE3890:
.LBE3889:
.LBE3888:
.LBB4005:
.LBB3883:
.LBB3879:
.LBB3875:
# /usr/include/boost/multi_array.hpp:58:           return multi_array_types::index_range(base,base+extent_);
	.loc 7 58 58 view .LVU451
	movq	%rdx, 376(%rsp)	# tmp273, MEM[(struct index_range *)&new_idxes + 8B]
	leaq	(%rdi,%rcx), %rdx	#, tmp274
.LBE3875:
.LBE3879:
.LBE3883:
.LBE4005:
.LBB4006:
.LBB3867:
# /usr/include/c++/9/bits/stl_algo.h:4376: 	*__result = __binary_op(*__first1, *__first2);
	.loc 9 4376 2 view .LVU452
	movq	%rax, 96(%rsp)	# prephitmp_300, MEM[(long unsigned int *)&min_extents]
	.loc 9 4375 7 is_stmt 1 view .LVU453
.LVL105:
	.loc 9 4375 23 view .LVU454
.LBB3866:
	.loc 4 198 5 view .LVU455
	.loc 4 198 5 is_stmt 0 view .LVU456
.LBE3866:
.LBE3867:
.LBE4006:
.LBB4007:
.LBB3884:
.LBB3880:
.LBB3876:
# /usr/include/boost/multi_array.hpp:58:           return multi_array_types::index_range(base,base+extent_);
	.loc 7 58 58 view .LVU457
	movq	%rdx, 408(%rsp)	# tmp274, MEM[(struct index_range *)&new_idxes + 40B]
.LBE3876:
.LBE3880:
.LBE3884:
.LBE4007:
.LBB4008:
.LBB4009:
# /usr/include/c++/9/bits/stl_algo.h:4376: 	*__result = __binary_op(*__first1, *__first2);
	.loc 9 4376 25 view .LVU458
	movq	64(%r12), %rdx	# MEM[(long int *)this_3(D) + 64B], _486
.LBE4009:
.LBE4008:
.LBB4026:
.LBB3868:
# /usr/include/c++/9/bits/stl_algo.h:4376: 	*__result = __binary_op(*__first1, *__first2);
	.loc 9 4376 2 view .LVU459
	movq	%rcx, 104(%rsp)	# prephitmp_58, MEM[(long unsigned int *)&min_extents + 8B]
	.loc 9 4375 7 is_stmt 1 view .LVU460
.LVL106:
	.loc 9 4375 23 view .LVU461
	.loc 9 4375 23 is_stmt 0 view .LVU462
.LBE3868:
.LBE4026:
.LBB4027:
.LBI4027:
	.file 22 "/usr/include/boost/multi_array/index_gen.hpp"
	.loc 22 43 3 is_stmt 1 view .LVU463
.LBB4028:
.LBB4029:
.LBI4029:
	.loc 15 61 11 view .LVU464
.LBE4029:
.LBE4028:
.LBE4027:
	.loc 15 61 11 view .LVU465
.LBB4042:
.LBB4040:
.LBB4038:
.LBB4030:
.LBI4030:
	.file 23 "/usr/include/boost/multi_array/index_range.hpp"
	.loc 23 47 5 view .LVU466
.LBB4031:
.LBB4032:
.LBI4032:
	.loc 23 39 18 view .LVU467
.LBE4032:
.LBB4033:
.LBI4033:
	.loc 23 42 18 view .LVU468
	.loc 23 42 18 is_stmt 0 view .LVU469
.LBE4033:
.LBE4031:
.LBE4030:
.LBE4038:
.LBE4040:
.LBE4042:
	.loc 15 61 11 is_stmt 1 view .LVU470
	.loc 15 61 11 view .LVU471
.LBB4043:
.LBB4041:
.LBB4039:
.LBB4037:
	.loc 23 47 5 view .LVU472
.LBB4036:
.LBB4034:
	.loc 23 39 18 view .LVU473
.LBE4034:
.LBB4035:
	.loc 23 42 18 view .LVU474
	.loc 23 42 18 is_stmt 0 view .LVU475
.LBE4035:
.LBE4036:
.LBE4037:
.LBE4039:
.LBE4041:
.LBE4043:
	.loc 15 61 11 is_stmt 1 view .LVU476
	.loc 15 61 11 view .LVU477
.LBB4044:
.LBI4044:
	.loc 22 43 3 view .LVU478
.LBB4045:
.LBB4046:
.LBI4046:
	.loc 15 61 11 view .LVU479
.LBE4046:
.LBE4045:
.LBE4044:
	.loc 15 61 11 view .LVU480
.LBB4059:
.LBB4057:
.LBB4055:
.LBB4047:
.LBI4047:
	.loc 23 47 5 view .LVU481
.LBB4048:
.LBB4049:
.LBI4049:
	.loc 23 39 18 view .LVU482
.LBE4049:
.LBB4050:
.LBI4050:
	.loc 23 42 18 view .LVU483
	.loc 23 42 18 is_stmt 0 view .LVU484
.LBE4050:
.LBE4048:
.LBE4047:
.LBE4055:
.LBE4057:
.LBE4059:
	.loc 15 61 11 is_stmt 1 view .LVU485
	.loc 15 61 11 view .LVU486
.LBB4060:
.LBB4058:
.LBB4056:
.LBB4054:
	.loc 23 47 5 view .LVU487
.LBB4053:
.LBB4051:
	.loc 23 39 18 view .LVU488
.LBE4051:
.LBB4052:
	.loc 23 42 18 view .LVU489
	.loc 23 42 18 is_stmt 0 view .LVU490
.LBE4052:
.LBE4053:
.LBE4054:
.LBE4056:
.LBE4058:
.LBE4060:
	.loc 15 61 11 is_stmt 1 view .LVU491
	.loc 15 61 11 view .LVU492
.LBB4061:
.LBB3885:
	.loc 9 4375 23 view .LVU493
.LBB3881:
.LBI3871:
	.loc 7 56 9 view .LVU494
.LBB3877:
	.loc 7 58 11 view .LVU495
.LBB3873:
.LBI3873:
	.loc 23 63 14 view .LVU496
	.loc 23 63 14 is_stmt 0 view .LVU497
.LBE3873:
.LBE3877:
.LBE3881:
	.loc 9 4375 7 is_stmt 1 view .LVU498
	.loc 9 4375 23 view .LVU499
.LBB3882:
	.loc 7 56 9 view .LVU500
.LBB3878:
	.loc 7 58 11 view .LVU501
.LBB3874:
	.loc 23 63 14 view .LVU502
	.loc 23 63 14 is_stmt 0 view .LVU503
.LBE3874:
.LBE3878:
.LBE3882:
.LBE3885:
.LBE4061:
.LBB4062:
.LBB4022:
# /usr/include/c++/9/bits/stl_algo.h:4376: 	*__result = __binary_op(*__first1, *__first2);
	.loc 9 4376 2 view .LVU504
	movq	%rdx, 304(%rsp)	# _486, MEM[(struct index_range *)&old_idxes]
.LBB4010:
.LBB4011:
# /usr/include/boost/multi_array.hpp:58:           return multi_array_types::index_range(base,base+extent_);
	.loc 7 58 58 view .LVU505
	addq	%rax, %rdx	# prephitmp_300, tmp275
.LBE4011:
.LBE4010:
# /usr/include/c++/9/bits/stl_algo.h:4376: 	*__result = __binary_op(*__first1, *__first2);
	.loc 9 4376 25 view .LVU506
	movq	72(%r12), %rax	# MEM[(long int *)this_3(D) + 72B], _50
.LBE4022:
.LBE4062:
.LBB4063:
.LBB3886:
# /usr/include/c++/9/bits/stl_algo.h:4376: 	*__result = __binary_op(*__first1, *__first2);
	.loc 9 4376 2 view .LVU507
	movq	%rdi, 400(%rsp)	# pretmp_143, MEM[(struct index_range *)&new_idxes + 32B]
.LBE3886:
.LBE4063:
.LBB4064:
.LBB4023:
	movq	%rax, 336(%rsp)	# _50, MEM[(struct index_range *)&old_idxes + 32B]
.LBB4018:
.LBB4014:
# /usr/include/boost/multi_array.hpp:58:           return multi_array_types::index_range(base,base+extent_);
	.loc 7 58 58 view .LVU508
	addq	%rcx, %rax	# prephitmp_58, tmp276
	movq	%rax, 344(%rsp)	# tmp276, MEM[(struct index_range *)&old_idxes + 40B]
.LBE4014:
.LBE4018:
.LBE4023:
.LBE4064:
.LBB4065:
.LBB3995:
# /usr/include/boost/multi_array/multi_array_ref.hpp:539:                                       origin());
	.loc 2 539 47 view .LVU509
	movq	(%r12), %rax	# MEM[(double * *)this_3(D)], _297
.LBE3995:
.LBE4065:
.LBB4066:
.LBB3887:
# /usr/include/c++/9/bits/stl_algo.h:4376: 	*__result = __binary_op(*__first1, *__first2);
	.loc 9 4376 2 view .LVU510
	movb	$0, 424(%rsp)	#, MEM[(struct index_range *)&new_idxes + 56B]
	.loc 9 4375 7 is_stmt 1 view .LVU511
.LVL107:
	.loc 9 4375 23 view .LVU512
	.loc 9 4375 23 is_stmt 0 view .LVU513
.LBE3887:
.LBE4066:
.LBB4067:
.LBI4008:
	.loc 9 4363 5 is_stmt 1 view .LVU514
.LBB4024:
	.loc 9 4375 23 view .LVU515
.LBB4019:
.LBI4010:
	.loc 7 56 9 view .LVU516
.LBB4015:
	.loc 7 58 11 view .LVU517
.LBB4012:
.LBI4012:
	.loc 23 63 14 view .LVU518
	.loc 23 63 14 is_stmt 0 view .LVU519
.LBE4012:
.LBE4015:
.LBE4019:
.LBE4024:
.LBE4067:
.LBB4068:
.LBB3996:
# /usr/include/boost/multi_array/multi_array_ref.hpp:539:                                       origin());
	.loc 2 539 47 view .LVU520
	movq	%rax, 64(%rsp)	# _297, %sfp
.LBB3983:
.LBB3984:
# /usr/include/boost/multi_array/multi_array_ref.hpp:504:   element* origin() { return super_type::base_+super_type::origin_offset_; }
	.loc 2 504 47 view .LVU521
	movq	80(%r12), %rax	# MEM[(long int *)this_3(D) + 80B], _299
.LBE3984:
.LBE3983:
.LBE3996:
.LBE4068:
.LBB4069:
.LBB4025:
.LBB4020:
.LBB4016:
# /usr/include/boost/multi_array.hpp:58:           return multi_array_types::index_range(base,base+extent_);
	.loc 7 58 58 view .LVU522
	movq	%rdx, 312(%rsp)	# tmp275, MEM[(struct index_range *)&old_idxes + 8B]
.LBE4016:
.LBE4020:
# /usr/include/c++/9/bits/stl_algo.h:4376: 	*__result = __binary_op(*__first1, *__first2);
	.loc 9 4376 2 view .LVU523
	movq	$1, 320(%rsp)	#, MEM[(struct index_range *)&old_idxes + 16B]
	movb	$0, 328(%rsp)	#, MEM[(struct index_range *)&old_idxes + 24B]
	.loc 9 4375 7 is_stmt 1 view .LVU524
.LVL108:
	.loc 9 4375 23 view .LVU525
.LBB4021:
	.loc 7 56 9 view .LVU526
.LBB4017:
	.loc 7 58 11 view .LVU527
.LBB4013:
	.loc 23 63 14 view .LVU528
	.loc 23 63 14 is_stmt 0 view .LVU529
.LBE4013:
.LBE4017:
.LBE4021:
# /usr/include/c++/9/bits/stl_algo.h:4376: 	*__result = __binary_op(*__first1, *__first2);
	.loc 9 4376 2 view .LVU530
	movq	$1, 352(%rsp)	#, MEM[(struct index_range *)&old_idxes + 48B]
	movb	$0, 360(%rsp)	#, MEM[(struct index_range *)&old_idxes + 56B]
	.loc 9 4375 7 is_stmt 1 view .LVU531
.LVL109:
	.loc 9 4375 23 view .LVU532
	.loc 9 4375 23 is_stmt 0 view .LVU533
.LBE4025:
.LBE4069:
.LBB4070:
.LBI3888:
	.loc 2 530 3 is_stmt 1 view .LVU534
.LBB3997:
.LBB3986:
.LBI3983:
	.loc 2 504 12 view .LVU535
.LBB3985:
# /usr/include/boost/multi_array/multi_array_ref.hpp:504:   element* origin() { return super_type::base_+super_type::origin_offset_; }
	.loc 2 504 47 is_stmt 0 view .LVU536
	movq	%rax, 72(%rsp)	# _299, %sfp
.LVL110:
	.loc 2 504 47 view .LVU537
.LBE3985:
.LBE3986:
.LBB3987:
.LBI3890:
	.loc 1 408 3 is_stmt 1 view .LVU538
.LBB3975:
.LBB3892:
	.loc 1 421 29 view .LVU539
.L55:
.LBB3893:
# /usr/include/boost/multi_array/base.hpp:424:       const index default_start = index_bases[n];
	.loc 1 424 19 is_stmt 0 view .LVU540
	movabsq	$-9223372036854775808, %rax	#, tmp455
# /usr/include/boost/multi_array/base.hpp:427:       index start = current_range.get_start(default_start);
	.loc 1 427 13 view .LVU541
	movq	(%r8), %rcx	# MEM[base: _463, offset: 0B], _315
# /usr/include/boost/multi_array/base.hpp:425:       const index default_finish = default_start+extents[n];
	.loc 1 425 57 view .LVU542
	movq	(%r10), %r14	# MEM[base: _464, offset: 0B], _310
# /usr/include/boost/multi_array/base.hpp:425:       const index default_finish = default_start+extents[n];
	.loc 1 425 49 view .LVU543
	movabsq	$9223372036854775807, %rsi	#, tmp456
# /usr/include/boost/multi_array/base.hpp:424:       const index default_start = index_bases[n];
	.loc 1 424 19 view .LVU544
	movq	32(%r10), %rdi	# MEM[base: _464, offset: 32B], default_start
.LVL111:
.LBB3894:
.LBI3894:
	.loc 23 89 11 is_stmt 1 view .LVU545
	.loc 23 89 11 is_stmt 0 view .LVU546
.LBE3894:
# /usr/include/boost/multi_array/base.hpp:428:       index finish = current_range.get_finish(default_finish);
	.loc 1 428 13 view .LVU547
	movq	8(%r8), %r9	# MEM[base: _463, offset: 8B], default_finish
# /usr/include/boost/multi_array/base.hpp:424:       const index default_start = index_bases[n];
	.loc 1 424 19 view .LVU548
	cmpq	%rax, %rcx	# tmp455, _315
	cmove	%rdi, %rcx	# _315,, default_start, _315
.LVL112:
.LBB3895:
.LBI3895:
	.loc 23 101 11 is_stmt 1 view .LVU549
	.loc 23 101 11 is_stmt 0 view .LVU550
.LBE3895:
# /usr/include/boost/multi_array/base.hpp:425:       const index default_finish = default_start+extents[n];
	.loc 1 425 49 view .LVU551
	cmpq	%rsi, %r9	# tmp456, default_finish
# /usr/include/boost/multi_array/base.hpp:429:       index stride = current_range.stride();
	.loc 1 429 13 view .LVU552
	movq	16(%r8), %rsi	# MEM[base: _463, offset: 16B], _317
# /usr/include/boost/multi_array/base.hpp:425:       const index default_finish = default_start+extents[n];
	.loc 1 425 49 view .LVU553
	leaq	(%rdi,%r14), %rax	#, tmp379
	cmove	%rax, %r9	# tmp379,, default_finish
.LVL113:
# /usr/include/boost/multi_array/base.hpp:430:       BOOST_ASSERT(stride != 0);
	.loc 1 430 7 view .LVU554
	testq	%rsi, %rsi	# _317
	je	.L72	#,
.LBB3896:
# /usr/include/boost/multi_array/base.hpp:441:       if ((finish - start) / stride < 0) {
	.loc 1 441 19 view .LVU555
	movq	%r9, %r15	# default_finish, _320
# /usr/include/boost/multi_array/base.hpp:444:         len = 0;
	.loc 1 444 9 view .LVU556
	xorl	%ebp, %ebp	# len
# /usr/include/boost/multi_array/base.hpp:441:       if ((finish - start) / stride < 0) {
	.loc 1 441 19 view .LVU557
	subq	%rcx, %r15	# _315, _320
# /usr/include/boost/multi_array/base.hpp:441:       if ((finish - start) / stride < 0) {
	.loc 1 441 28 view .LVU558
	movq	%r15, %rax	# _320, tmp281
	cqto
	idivq	%rsi	# _317
# /usr/include/boost/multi_array/base.hpp:441:       if ((finish - start) / stride < 0) {
	.loc 1 441 7 view .LVU559
	testq	%rax, %rax	# tmp281
	js	.L60	#,
.LBB3897:
# /usr/include/boost/multi_array/base.hpp:448:         index shrinkage = stride > 0 ? 1 : -1;
	.loc 1 448 38 view .LVU560
	xorl	%eax, %eax	# iftmp.16_322
	testq	%rsi, %rsi	# _317
# /usr/include/boost/multi_array/base.hpp:449:         len = (finish - start + (stride - shrinkage)) / stride;
	.loc 1 449 41 view .LVU561
	movq	%rsi, %rdx	# _317, tmp283
# /usr/include/boost/multi_array/base.hpp:448:         index shrinkage = stride > 0 ? 1 : -1;
	.loc 1 448 38 view .LVU562
	setg	%al	#, iftmp.16_322
	leaq	-1(%rax,%rax), %rax	#, iftmp.16_322
.LVL114:
# /usr/include/boost/multi_array/base.hpp:449:         len = (finish - start + (stride - shrinkage)) / stride;
	.loc 1 449 41 view .LVU563
	subq	%rax, %rdx	# iftmp.16_322, tmp283
	movq	%rdx, %rax	# tmp283, tmp283
.LVL115:
# /usr/include/boost/multi_array/base.hpp:449:         len = (finish - start + (stride - shrinkage)) / stride;
	.loc 1 449 31 view .LVU564
	addq	%r15, %rax	# _320, tmp284
# /usr/include/boost/multi_array/base.hpp:449:         len = (finish - start + (stride - shrinkage)) / stride;
	.loc 1 449 9 view .LVU565
	cqto
	idivq	%rsi	# _317
	movq	%rax, %rbp	# tmp284, len
.LVL116:
.L60:
	.loc 1 449 9 view .LVU566
.LBE3897:
.LBE3896:
# /usr/include/boost/multi_array/base.hpp:455:       BOOST_ASSERT(index_bases[n] <= start &&
	.loc 1 455 7 view .LVU567
	cmpq	%rcx, %rdi	# _315, default_start
	jg	.L64	#,
	leaq	(%r14,%rdi), %rax	#, _327
	cmpq	%rax, %rcx	# _327, _315
	jle	.L63	#,
	testq	%r14, %r14	# _310
	jne	.L64	#,
	cmpq	%rcx, %rdi	# _315, default_start
	jne	.L64	#,
.L63:
# /usr/include/boost/multi_array/base.hpp:463:       index bound_adjustment = stride < 0 ? 1 : 0;
	.loc 1 463 43 view .LVU568
	movq	%rsi, %rdx	# _317, _331
	shrq	$63, %rdx	#, _331
.LVL117:
# /usr/include/boost/multi_array/base.hpp:464:       BOOST_ASSERT(((index_bases[n] - bound_adjustment) <= finish) &&
	.loc 1 464 7 view .LVU569
	subq	%rdx, %rdi	# _331, tmp293
.LVL118:
	.loc 1 464 7 view .LVU570
	cmpq	%rdi, %r9	# tmp293, default_finish
	jl	.L66	#,
	subq	%rdx, %rax	# _331, tmp294
	cmpq	%rax, %r9	# tmp294, default_finish
	jg	.L66	#,
.LVL119:
# /usr/include/boost/multi_array/base.hpp:472:       offset += start * strides[n];
	.loc 1 472 32 view .LVU571
	movq	16(%r10), %rax	# MEM[base: _464, offset: 16B], _335
# /usr/include/boost/multi_array/base.hpp:472:       offset += start * strides[n];
	.loc 1 472 23 view .LVU572
	imulq	%rax, %rcx	# _335, tmp295
.LVL120:
# /usr/include/boost/multi_array/base.hpp:472:       offset += start * strides[n];
	.loc 1 472 7 view .LVU573
	addq	%rcx, %r11	# tmp295, offset
.LVL121:
# /usr/include/boost/multi_array/base.hpp:474:       if (!current_range.is_degenerate()) {
	.loc 1 474 7 view .LVU574
	cmpb	$0, 24(%r8)	#, MEM[base: _463, offset: 24B]
	jne	.L67	#,
.LVL122:
.LBB3898:
.LBI3898:
	.loc 15 116 19 is_stmt 1 view .LVU575
.LBB3899:
# /usr/include/boost/array.hpp:118:             return BOOST_ASSERT_MSG( i < N, "out of range" ), elems[i]; 
	.loc 15 118 20 is_stmt 0 view .LVU576
	cmpq	$1, %r13	#, dim
	ja	.L77	#,
.LVL123:
	.loc 15 118 20 view .LVU577
.LBE3899:
.LBE3898:
# /usr/include/boost/multi_array/base.hpp:478:         new_strides[dim] = stride * strides[n];
	.loc 1 478 35 view .LVU578
	imulq	%rax, %rsi	# _335, tmp296
.LVL124:
# /usr/include/boost/multi_array/base.hpp:481:         new_extents[dim] = len;
	.loc 1 481 9 view .LVU579
	movq	%rbp, 512(%rsp,%r13,8)	# len, MEM[(long int &)&new_extents].elems
# /usr/include/boost/multi_array/base.hpp:478:         new_strides[dim] = stride * strides[n];
	.loc 1 478 9 view .LVU580
	movq	%rsi, 160(%rsp,%r13,8)	# tmp296, MEM[(long int &)&new_strides].elems
.LVL125:
.LBB3901:
.LBI3901:
	.loc 15 116 19 is_stmt 1 view .LVU581
	.loc 15 116 19 is_stmt 0 view .LVU582
.LBE3901:
# /usr/include/boost/multi_array/base.hpp:482:         ++dim;
	.loc 1 482 9 view .LVU583
	addq	$1, %r13	#, dim
.LVL126:
.L67:
	.loc 1 482 9 view .LVU584
.LBE3893:
	.loc 1 421 5 is_stmt 1 view .LVU585
	.loc 1 421 29 view .LVU586
	addq	$32, %r8	#, ivtmp.549
.LVL127:
	.loc 1 421 29 is_stmt 0 view .LVU587
	leaq	368(%rsp), %rax	#, tmp462
	addq	$8, %r10	#, ivtmp.547
.LVL128:
	.loc 1 421 29 view .LVU588
	cmpq	%r8, %rax	# ivtmp.549, tmp462
	jne	.L55	#,
	.loc 1 421 29 view .LVU589
.LBE3892:
# /usr/include/boost/multi_array/base.hpp:485:     BOOST_ASSERT(dim == NDims);
	.loc 1 485 5 view .LVU590
	cmpq	$2, %r13	#, dim
	jne	.L80	#,
# /usr/include/boost/multi_array/base.hpp:490:                new_strides);
	.loc 1 490 27 view .LVU591
	movq	64(%rsp), %rax	# %sfp, _297
	addq	72(%rsp), %r11	# %sfp, tmp297
.LVL129:
	.loc 1 490 27 view .LVU592
.LBE3975:
.LBE3987:
.LBE3997:
.LBE4070:
.LBB4071:
.LBB4072:
.LBB4073:
.LBB4074:
# /usr/include/boost/multi_array/base.hpp:420:     size_type dim = 0;
	.loc 1 420 15 view .LVU593
	xorl	%r14d, %r14d	# dim
.LVL130:
	.loc 1 420 15 view .LVU594
.LBE4074:
.LBE4073:
.LBE4072:
.LBE4071:
.LBB4204:
.LBB3998:
.LBB3988:
.LBB3976:
.LBB3905:
.LBB3906:
.LBB3907:
.LBB3908:
# /usr/include/boost/multi_array/view.hpp:232:     base_(base), origin_offset_(0) {
	.file 24 "/usr/include/boost/multi_array/view.hpp"
	.loc 24 232 34 view .LVU595
	movq	$0, 440(%rsp)	#, MEM[(struct const_multi_array_view *)&view_old].origin_offset_
.LBB3909:
.LBB3910:
# /usr/include/boost/multi_array/algorithm.hpp:56:     *result = *first;
	.loc 12 56 5 view .LVU596
	movq	512(%rsp), %rsi	# MEM[(const long int *)&new_extents], _706
.LBE3910:
.LBE3909:
.LBB3914:
.LBB3915:
	movq	160(%rsp), %rdx	# MEM[(const long int *)&new_strides], MEM[(const long int *)&new_strides]
.LBE3915:
.LBE3914:
.LBB3918:
.LBB3919:
.LBB3920:
.LBB3921:
.LBB3922:
.LBB3923:
# /usr/include/c++/9/bits/stl_algobase.h:772: 	*__first = __tmp;
	.loc 4 772 2 view .LVU597
	movq	$0, 488(%rsp)	#, MEM[(long int *)&view_old + 56B]
	leaq	368(%rsp), %r8	#, tmp470
.LVL131:
	.loc 4 772 2 view .LVU598
.LBE3923:
.LBE3922:
.LBE3921:
.LBE3920:
.LBE3919:
.LBE3918:
.LBE3908:
.LBE3907:
.LBE3906:
.LBE3905:
# /usr/include/boost/multi_array/base.hpp:490:                new_strides);
	.loc 1 490 27 view .LVU599
	leaq	(%rax,%r11,8), %rax	#, _349
.LBE3976:
.LBE3988:
.LBE3998:
.LBE4204:
.LBB4205:
.LBB3842:
.LBB3821:
.LBB3775:
.LBB3756:
.LBB3737:
.LBB3718:
.LBB3695:
.LBB3672:
.LBB3502:
.LBB3495:
.LBB3488:
# /usr/include/boost/multi_array/extent_range.hpp:41:   size_type size() const { return super_type::second - super_type::first; }
	.loc 8 41 68 view .LVU600
	movq	8(%rsp), %r13	# %sfp, prephitmp_710
.LVL132:
	.loc 8 41 68 view .LVU601
.LBE3488:
.LBE3495:
.LBE3502:
.LBE3672:
.LBE3695:
.LBE3718:
.LBE3737:
.LBE3756:
.LBE3775:
.LBE3821:
.LBE3842:
.LBE4205:
.LBB4206:
.LBB4196:
.LBB4185:
.LBB4186:
# /usr/include/boost/multi_array/multi_array_ref.hpp:504:   element* origin() { return super_type::base_+super_type::origin_offset_; }
	.loc 2 504 47 view .LVU602
	movq	24(%rsp), %rdi	# %sfp, pretmp_721
.LBE4186:
.LBE4185:
.LBB4187:
.LBB4177:
# /usr/include/boost/multi_array/base.hpp:419:     index offset = 0;
	.loc 1 419 11 view .LVU603
	xorl	%r11d, %r11d	# offset
.LBE4177:
.LBE4187:
.LBE4196:
.LBE4206:
.LBB4207:
.LBB3999:
.LBB3989:
.LBB3977:
# /usr/include/boost/multi_array/base.hpp:490:                new_strides);
	.loc 1 490 27 view .LVU604
	movq	%rax, 64(%rsp)	# _349, %sfp
.LVL133:
.LBB3969:
.LBI3905:
	.loc 24 431 12 is_stmt 1 view .LVU605
.LBB3965:
.LBI3906:
	.loc 24 229 12 view .LVU606
.LBB3961:
.LBB3957:
.LBB3934:
.LBI3934:
	.loc 1 294 3 view .LVU607
.LBB3935:
.LBI3935:
	.loc 1 143 3 view .LVU608
	.loc 1 143 3 is_stmt 0 view .LVU609
.LBE3935:
.LBE3934:
.LBB3936:
.LBI3918:
	.loc 15 178 14 is_stmt 1 view .LVU610
.LBB3932:
.LBI3919:
	.loc 15 179 14 view .LVU611
.LBB3930:
.LBI3920:
	.loc 4 802 5 view .LVU612
.LBB3928:
.LBI3921:
	.loc 4 767 5 view .LVU613
.LBB3926:
.LBB3924:
	.loc 4 771 13 view .LVU614
	.loc 4 770 7 view .LVU615
	.loc 4 771 13 view .LVU616
	leaq	592(%rsp), %r10	#, ivtmp.537
.LVL134:
	.loc 4 771 13 is_stmt 0 view .LVU617
.LBE3924:
.LBE3926:
.LBE3928:
.LBE3930:
.LBE3932:
.LBE3936:
# /usr/include/boost/multi_array/view.hpp:232:     base_(base), origin_offset_(0) {
	.loc 24 232 34 view .LVU618
	movq	%rax, 432(%rsp)	# _349, MEM[(struct const_multi_array_view *)&view_old].base_
.LBB3937:
.LBB3911:
# /usr/include/boost/multi_array/algorithm.hpp:56:     *result = *first;
	.loc 12 56 5 view .LVU619
	movq	520(%rsp), %rax	# MEM[(const long int *)&new_extents + 8B], _717
.LVL135:
	.loc 12 56 5 view .LVU620
.LBE3911:
.LBE3937:
.LBB3938:
.LBB3916:
	movq	%rdx, 472(%rsp)	# MEM[(const long int *)&new_strides], MEM[(long int *)&view_old + 40B]
	movq	168(%rsp), %rdx	# MEM[(const long int *)&new_strides + 8B], MEM[(const long int *)&new_strides + 8B]
.LBE3916:
.LBE3938:
.LBB3939:
.LBB3912:
	movq	%rax, 464(%rsp)	# _717, MEM[(long unsigned int *)&view_old + 32B]
.LBE3912:
.LBE3939:
.LBB3940:
.LBB3941:
.LBB3942:
# /usr/include/c++/9/bits/stl_function.h:192:       { return __x * __y; }
	.loc 11 192 22 view .LVU621
	imulq	%rsi, %rax	# _706, tmp301
.LBE3942:
.LBE3941:
.LBE3940:
.LBB3945:
.LBB3933:
.LBB3931:
.LBB3929:
.LBB3927:
.LBB3925:
# /usr/include/c++/9/bits/stl_algobase.h:772: 	*__first = __tmp;
	.loc 4 772 2 view .LVU622
	movq	$0, 496(%rsp)	#, MEM[(long int *)&view_old + 64B]
	.loc 4 770 7 is_stmt 1 view .LVU623
.LVL136:
	.loc 4 771 13 view .LVU624
	.loc 4 771 13 is_stmt 0 view .LVU625
.LBE3925:
.LBE3927:
.LBE3929:
.LBE3931:
.LBE3933:
.LBE3945:
.LBB3946:
.LBI3946:
	.loc 15 76 25 is_stmt 1 view .LVU626
	.loc 15 76 25 is_stmt 0 view .LVU627
.LBE3946:
.LBB3947:
.LBI3947:
	.loc 15 77 25 is_stmt 1 view .LVU628
	.loc 15 77 25 is_stmt 0 view .LVU629
.LBE3947:
.LBB3948:
.LBI3909:
	.loc 12 53 12 is_stmt 1 view .LVU630
.LBB3913:
	.loc 12 55 17 view .LVU631
# /usr/include/boost/multi_array/algorithm.hpp:56:     *result = *first;
	.loc 12 56 5 is_stmt 0 view .LVU632
	movq	%rsi, 72(%rsp)	# _706, %sfp
	movq	%rsi, 456(%rsp)	# _706, MEM[(long unsigned int *)&view_old + 24B]
.LVL137:
	.loc 12 55 3 is_stmt 1 view .LVU633
	.loc 12 55 17 view .LVU634
	.loc 12 55 3 view .LVU635
	.loc 12 55 17 view .LVU636
	.loc 12 55 17 is_stmt 0 view .LVU637
.LBE3913:
.LBE3948:
.LBB3949:
.LBI3949:
	.loc 15 76 25 is_stmt 1 view .LVU638
	.loc 15 76 25 is_stmt 0 view .LVU639
.LBE3949:
.LBB3950:
.LBI3950:
	.loc 15 77 25 is_stmt 1 view .LVU640
	.loc 15 77 25 is_stmt 0 view .LVU641
.LBE3950:
.LBB3951:
.LBI3914:
	.loc 12 53 12 is_stmt 1 view .LVU642
.LBB3917:
	.loc 12 55 17 view .LVU643
	.loc 12 55 3 view .LVU644
	.loc 12 55 17 view .LVU645
# /usr/include/boost/multi_array/algorithm.hpp:56:     *result = *first;
	.loc 12 56 5 is_stmt 0 view .LVU646
	movq	%rdx, 480(%rsp)	# MEM[(const long int *)&new_strides + 8B], MEM[(long int *)&view_old + 48B]
.LVL138:
	.loc 12 55 3 is_stmt 1 view .LVU647
	.loc 12 55 17 view .LVU648
	.loc 12 55 17 is_stmt 0 view .LVU649
.LBE3917:
.LBE3951:
.LBB3952:
.LBI3952:
	.loc 15 80 25 is_stmt 1 view .LVU650
	.loc 15 80 25 is_stmt 0 view .LVU651
.LBE3952:
.LBB3953:
.LBI3953:
	.loc 15 76 25 is_stmt 1 view .LVU652
	.loc 15 76 25 is_stmt 0 view .LVU653
.LBE3953:
.LBB3954:
.LBI3940:
	.loc 13 158 5 is_stmt 1 view .LVU654
	.loc 13 158 5 is_stmt 0 view .LVU655
.LBE3954:
.LBE3957:
.LBE3961:
.LBE3965:
.LBE3969:
.LBE3977:
.LBE3989:
.LBE3999:
.LBE4207:
	.loc 13 165 22 is_stmt 1 view .LVU656
.LBB4208:
.LBB4000:
.LBB3990:
.LBB3978:
.LBB3970:
.LBB3966:
.LBB3962:
.LBB3958:
.LBB3955:
.LBB3943:
.LBI3941:
	.loc 11 191 7 view .LVU657
	.loc 11 191 7 is_stmt 0 view .LVU658
.LBE3943:
.LBE3955:
.LBE3958:
.LBE3962:
.LBE3966:
.LBE3970:
.LBE3978:
.LBE3990:
.LBE4000:
.LBE4208:
	.loc 13 165 7 is_stmt 1 view .LVU659
	.loc 13 165 22 view .LVU660
.LBB4209:
.LBB4001:
.LBB3991:
.LBB3979:
.LBB3971:
.LBB3967:
.LBB3963:
.LBB3959:
.LBB3956:
.LBB3944:
	.loc 11 191 7 view .LVU661
	.loc 11 191 7 is_stmt 0 view .LVU662
.LBE3944:
.LBE3956:
.LBE3959:
.LBE3963:
.LBE3967:
.LBE3971:
.LBE3979:
.LBE3991:
.LBE4001:
.LBE4209:
	.loc 13 165 7 is_stmt 1 view .LVU663
	.loc 13 165 22 view .LVU664
.LBB4210:
.LBB4002:
.LBB3992:
.LBB3980:
.LBB3972:
.LBB3968:
.LBB3964:
.LBB3960:
# /usr/include/boost/multi_array/view.hpp:243:     num_elements_ = std::accumulate(extent_list_.begin(),extent_list_.end(),
	.loc 24 243 5 is_stmt 0 view .LVU665
	movq	%rax, 448(%rsp)	# tmp301, MEM[(struct const_multi_array_view *)&view_old].num_elements_
.LVL139:
	.loc 24 243 5 view .LVU666
.LBE3960:
.LBE3964:
.LBE3968:
.LBE3972:
.LBE3980:
.LBE3992:
.LBE4002:
.LBE4210:
.LBB4211:
.LBI4071:
	.loc 2 530 3 is_stmt 1 view .LVU667
.LBB4197:
.LBB4188:
.LBI4185:
	.loc 2 504 12 view .LVU668
	.loc 2 504 12 is_stmt 0 view .LVU669
.LBE4188:
.LBB4189:
.LBI4073:
	.loc 1 408 3 is_stmt 1 view .LVU670
.LBB4178:
.LBB4075:
	.loc 1 421 29 view .LVU671
.L79:
.LBB4076:
# /usr/include/boost/multi_array/base.hpp:427:       index start = current_range.get_start(default_start);
	.loc 1 427 13 is_stmt 0 view .LVU672
	movq	(%r8), %rcx	# MEM[base: _466, offset: 0B], _393
.LVL140:
.LBB4077:
.LBI4077:
	.loc 23 89 11 is_stmt 1 view .LVU673
	.loc 23 89 11 is_stmt 0 view .LVU674
.LBE4077:
# /usr/include/boost/multi_array/base.hpp:428:       index finish = current_range.get_finish(default_finish);
	.loc 1 428 13 view .LVU675
	movq	8(%r8), %r9	# MEM[base: _466, offset: 8B], default_finish
.LBB4081:
.LBB4078:
# /usr/include/boost/multi_array/index_range.hpp:91:       if (start_ == from_start())
	.loc 23 91 7 view .LVU676
	movabsq	$-9223372036854775808, %rax	#, tmp471
.LBE4078:
.LBE4081:
# /usr/include/boost/multi_array/base.hpp:425:       const index default_finish = default_start+extents[n];
	.loc 1 425 49 view .LVU677
	movabsq	$9223372036854775807, %rsi	#, tmp472
.LBB4082:
.LBB4079:
# /usr/include/boost/multi_array/index_range.hpp:91:       if (start_ == from_start())
	.loc 23 91 7 view .LVU678
	cmpq	%rax, %rcx	# tmp471, _393
.LBE4079:
.LBE4082:
# /usr/include/boost/multi_array/base.hpp:425:       const index default_finish = default_start+extents[n];
	.loc 1 425 49 view .LVU679
	leaq	(%rdi,%r13), %rax	#, tmp383
.LBB4083:
.LBB4080:
# /usr/include/boost/multi_array/index_range.hpp:91:       if (start_ == from_start())
	.loc 23 91 7 view .LVU680
	cmove	%rdi, %rcx	# _393,, pretmp_721, _393
.LVL141:
	.loc 23 91 7 view .LVU681
.LBE4080:
.LBE4083:
.LBB4084:
.LBI4084:
	.loc 23 101 11 is_stmt 1 view .LVU682
	.loc 23 101 11 is_stmt 0 view .LVU683
.LBE4084:
# /usr/include/boost/multi_array/base.hpp:425:       const index default_finish = default_start+extents[n];
	.loc 1 425 49 view .LVU684
	cmpq	%rsi, %r9	# tmp472, default_finish
# /usr/include/boost/multi_array/base.hpp:429:       index stride = current_range.stride();
	.loc 1 429 13 view .LVU685
	movq	16(%r8), %rsi	# MEM[base: _466, offset: 16B], _395
# /usr/include/boost/multi_array/base.hpp:425:       const index default_finish = default_start+extents[n];
	.loc 1 425 49 view .LVU686
	cmove	%rax, %r9	# tmp383,, default_finish
.LVL142:
# /usr/include/boost/multi_array/base.hpp:430:       BOOST_ASSERT(stride != 0);
	.loc 1 430 7 view .LVU687
	testq	%rsi, %rsi	# _395
	je	.L72	#,
.LBB4085:
# /usr/include/boost/multi_array/base.hpp:441:       if ((finish - start) / stride < 0) {
	.loc 1 441 19 view .LVU688
	movq	%r9, %rbp	# default_finish, _398
# /usr/include/boost/multi_array/base.hpp:444:         len = 0;
	.loc 1 444 9 view .LVU689
	xorl	%r15d, %r15d	# len
# /usr/include/boost/multi_array/base.hpp:441:       if ((finish - start) / stride < 0) {
	.loc 1 441 19 view .LVU690
	subq	%rcx, %rbp	# _393, _398
# /usr/include/boost/multi_array/base.hpp:441:       if ((finish - start) / stride < 0) {
	.loc 1 441 28 view .LVU691
	movq	%rbp, %rax	# _398, tmp305
	cqto
	idivq	%rsi	# _395
# /usr/include/boost/multi_array/base.hpp:441:       if ((finish - start) / stride < 0) {
	.loc 1 441 7 view .LVU692
	testq	%rax, %rax	# tmp305
	js	.L73	#,
.LBB4086:
# /usr/include/boost/multi_array/base.hpp:448:         index shrinkage = stride > 0 ? 1 : -1;
	.loc 1 448 38 view .LVU693
	xorl	%eax, %eax	# iftmp.16_400
	testq	%rsi, %rsi	# _395
# /usr/include/boost/multi_array/base.hpp:449:         len = (finish - start + (stride - shrinkage)) / stride;
	.loc 1 449 41 view .LVU694
	movq	%rsi, %rdx	# _395, tmp307
# /usr/include/boost/multi_array/base.hpp:448:         index shrinkage = stride > 0 ? 1 : -1;
	.loc 1 448 38 view .LVU695
	setg	%al	#, iftmp.16_400
	leaq	-1(%rax,%rax), %rax	#, iftmp.16_400
.LVL143:
# /usr/include/boost/multi_array/base.hpp:449:         len = (finish - start + (stride - shrinkage)) / stride;
	.loc 1 449 41 view .LVU696
	subq	%rax, %rdx	# iftmp.16_400, tmp307
	movq	%rdx, %rax	# tmp307, tmp307
.LVL144:
# /usr/include/boost/multi_array/base.hpp:449:         len = (finish - start + (stride - shrinkage)) / stride;
	.loc 1 449 31 view .LVU697
	addq	%rbp, %rax	# _398, tmp308
# /usr/include/boost/multi_array/base.hpp:449:         len = (finish - start + (stride - shrinkage)) / stride;
	.loc 1 449 9 view .LVU698
	cqto
	idivq	%rsi	# _395
	movq	%rax, %r15	# tmp308, len
.LVL145:
.L73:
	.loc 1 449 9 view .LVU699
.LBE4086:
.LBE4085:
# /usr/include/boost/multi_array/base.hpp:455:       BOOST_ASSERT(index_bases[n] <= start &&
	.loc 1 455 7 view .LVU700
	cmpq	%rdi, %rcx	# pretmp_721, _393
	jl	.L64	#,
	leaq	0(%r13,%rdi), %rbp	#, _405
	cmpq	%rbp, %rcx	# _405, _393
	jle	.L75	#,
	testq	%r13, %r13	# prephitmp_710
	jne	.L64	#,
	cmpq	%rdi, %rcx	# pretmp_721, _393
	jne	.L64	#,
.L75:
# /usr/include/boost/multi_array/base.hpp:463:       index bound_adjustment = stride < 0 ? 1 : 0;
	.loc 1 463 43 view .LVU701
	movq	%rsi, %rax	# _395, _409
	shrq	$63, %rax	#, _409
.LVL146:
# /usr/include/boost/multi_array/base.hpp:464:       BOOST_ASSERT(((index_bases[n] - bound_adjustment) <= finish) &&
	.loc 1 464 7 view .LVU702
	subq	%rax, %rdi	# _409, tmp317
.LVL147:
	.loc 1 464 7 view .LVU703
	cmpq	%rdi, %r9	# tmp317, default_finish
	jl	.L66	#,
	subq	%rax, %rbp	# _409, tmp318
	cmpq	%rbp, %r9	# tmp318, default_finish
	jg	.L66	#,
.LVL148:
# /usr/include/boost/multi_array/base.hpp:472:       offset += start * strides[n];
	.loc 1 472 32 view .LVU704
	movq	48(%r10), %rax	# MEM[base: _293, offset: 48B], _413
.LVL149:
# /usr/include/boost/multi_array/base.hpp:472:       offset += start * strides[n];
	.loc 1 472 23 view .LVU705
	imulq	%rax, %rcx	# _413, tmp319
.LVL150:
# /usr/include/boost/multi_array/base.hpp:472:       offset += start * strides[n];
	.loc 1 472 7 view .LVU706
	addq	%rcx, %r11	# tmp319, offset
.LVL151:
# /usr/include/boost/multi_array/base.hpp:474:       if (!current_range.is_degenerate()) {
	.loc 1 474 7 view .LVU707
	cmpb	$0, 24(%r8)	#, MEM[base: _466, offset: 24B]
	jne	.L76	#,
.LVL152:
.LBB4087:
.LBI4087:
	.loc 15 116 19 is_stmt 1 view .LVU708
.LBB4088:
# /usr/include/boost/array.hpp:118:             return BOOST_ASSERT_MSG( i < N, "out of range" ), elems[i]; 
	.loc 15 118 20 is_stmt 0 view .LVU709
	cmpq	$1, %r14	#, dim
	ja	.L77	#,
.LVL153:
	.loc 15 118 20 view .LVU710
.LBE4088:
.LBE4087:
# /usr/include/boost/multi_array/base.hpp:478:         new_strides[dim] = stride * strides[n];
	.loc 1 478 35 view .LVU711
	imulq	%rax, %rsi	# _413, tmp320
.LVL154:
# /usr/include/boost/multi_array/base.hpp:481:         new_extents[dim] = len;
	.loc 1 481 9 view .LVU712
	movq	%r15, 256(%rsp,%r14,8)	# len, MEM[(long int &)&new_extents].elems
.LVL155:
# /usr/include/boost/multi_array/base.hpp:478:         new_strides[dim] = stride * strides[n];
	.loc 1 478 9 view .LVU713
	movq	%rsi, 208(%rsp,%r14,8)	# tmp320, MEM[(long int &)&new_strides].elems
.LVL156:
.LBB4089:
.LBI4089:
	.loc 15 116 19 is_stmt 1 view .LVU714
	.loc 15 116 19 is_stmt 0 view .LVU715
.LBE4089:
# /usr/include/boost/multi_array/base.hpp:482:         ++dim;
	.loc 1 482 9 view .LVU716
	addq	$1, %r14	#, dim
.LVL157:
.L76:
	.loc 1 482 9 view .LVU717
.LBE4076:
	.loc 1 421 5 is_stmt 1 view .LVU718
	.loc 1 421 29 view .LVU719
	addq	$32, %r8	#, ivtmp.533
.LVL158:
	.loc 1 421 29 is_stmt 0 view .LVU720
	leaq	432(%rsp), %rax	#, tmp478
	addq	$8, %r10	#, ivtmp.537
	cmpq	%rax, %r8	# tmp478, ivtmp.533
	je	.L78	#,
	.loc 1 421 29 view .LVU721
	movq	64(%r10), %rdi	# MEM[base: _292, offset: 64B], pretmp_721
	movq	32(%r10), %r13	# MEM[base: _292, offset: 32B], prephitmp_710
	jmp	.L79	#
.LVL159:
	.p2align 4,,10
	.p2align 3
.L51:
	.loc 1 421 29 view .LVU722
.LBE4075:
.LBE4178:
.LBE4189:
.LBE4197:
.LBE4211:
	.loc 13 165 7 is_stmt 1 view .LVU723
	.loc 13 165 22 view .LVU724
.LBB4212:
.LBB3843:
.LBB3822:
.LBB3776:
.LBB3757:
.LBB3738:
.LBB3719:
.LBB3696:
.LBB3673:
.LBB3654:
.LBB3633:
.LBB3602:
.LBB3596:
.LBB3591:
.LBB3586:
.LBB3576:
.LBB3573:
	.loc 11 790 7 view .LVU725
	.loc 11 790 7 is_stmt 0 view .LVU726
.LBE3573:
.LBE3576:
.LBE3586:
.LBE3591:
.LBE3596:
.LBE3602:
.LBE3633:
.LBE3654:
.LBE3673:
.LBE3696:
.LBE3719:
.LBE3738:
.LBE3757:
.LBE3776:
.LBE3822:
.LBE3843:
.LBE4212:
	.loc 13 165 7 is_stmt 1 view .LVU727
	.loc 13 165 22 view .LVU728
.LBB4213:
.LBB3844:
.LBB3823:
.LBB3777:
.LBB3758:
.LBB3739:
.LBB3720:
.LBB3697:
.LBB3674:
.LBB3655:
.LBB3634:
.LBB3603:
.LBB3597:
.LBB3592:
.LBB3587:
.LBB3584:
.LBB3582:
	.loc 1 375 31 view .LVU729
# /usr/include/boost/multi_array/base.hpp:377:           offset -= (extent_list[n] - 1) * stride_list[n];
	.loc 1 377 37 is_stmt 0 view .LVU730
	movq	8(%rsp), %rax	# %sfp, _896
	subq	$1, %rax	#, tmp359
# /usr/include/boost/multi_array/base.hpp:377:           offset -= (extent_list[n] - 1) * stride_list[n];
	.loc 1 377 42 view .LVU731
	imulq	80(%rsp), %rax	# %sfp, _831
.LVL160:
	.loc 1 375 7 is_stmt 1 view .LVU732
	.loc 1 375 31 view .LVU733
# /usr/include/boost/multi_array/base.hpp:376:         if (!storage.ascending(n))
	.loc 1 376 9 is_stmt 0 view .LVU734
	testb	%cl, %cl	# pretmp_564
	je	.L119	#,
.LVL161:
	.loc 1 376 9 view .LVU735
.LBE3582:
.LBE3584:
.LBE3587:
.LBE3592:
.LBE3597:
.LBE3603:
.LBE3634:
.LBE3655:
.LBE3674:
.LBE3697:
.LBE3720:
.LBE3739:
.LBE3758:
.LBE3777:
.LBE3823:
.LBE3844:
.LBE4213:
	.loc 1 392 29 is_stmt 1 view .LVU736
	.loc 1 392 5 view .LVU737
	.loc 1 392 29 view .LVU738
	.loc 1 392 5 view .LVU739
	.loc 1 392 29 view .LVU740
.LBB4214:
.LBB3845:
.LBB3824:
.LBB3778:
.LBB3759:
.LBB3740:
.LBB3721:
.LBB3698:
.LBB3675:
.LBB3656:
.LBB3635:
.LBB3604:
# /usr/include/boost/multi_array/base.hpp:362:       calculate_indexing_offset(stride_list,index_base_list);
	.loc 1 362 60 is_stmt 0 view .LVU741
	subq	%rax, 16(%rsp)	# _831, %sfp
	movq	16(%rsp), %rbx	# %sfp, _470
.LBE3604:
.LBE3635:
.LBB3636:
.LBB3627:
.LBB3623:
.LBB3619:
.LBB3615:
# /usr/include/boost/multi_array/base.hpp:377:           offset -= (extent_list[n] - 1) * stride_list[n];
	.loc 1 377 18 view .LVU742
	negq	%rax	# _831
	movq	%rax, 56(%rsp)	# _831, %sfp
.LBE3615:
.LBE3619:
.LBE3623:
.LBE3627:
.LBE3636:
# /usr/include/boost/multi_array/multi_array_ref.hpp:402:     origin_offset_ =
	.loc 2 402 5 view .LVU743
	movq	%rbx, 672(%rsp)	# _470, MEM[(struct const_multi_array_ref *)&new_array].origin_offset_
.LVL162:
.LBB3637:
	.loc 1 369 3 is_stmt 1 view .LVU744
	.loc 1 369 3 is_stmt 0 view .LVU745
.LBE3637:
.LBE3656:
.LBE3675:
.LBE3698:
.LBE3721:
.LBE3740:
.LBE3759:
.LBE3778:
.LBE3824:
.LBE3845:
.LBE4214:
	.loc 13 165 22 is_stmt 1 view .LVU746
	.loc 13 165 7 view .LVU747
	.loc 13 165 22 view .LVU748
	.loc 13 165 7 view .LVU749
	.loc 13 165 22 view .LVU750
.LBB4215:
.LBB3846:
.LBB3825:
.LBB3779:
.LBB3760:
.LBB3741:
.LBB3722:
.LBB3699:
.LBB3676:
.LBB3657:
.LBB3638:
.LBB3628:
.LBB3624:
.LBB3620:
.LBB3616:
	.loc 1 375 31 view .LVU751
	.loc 1 375 7 view .LVU752
	.loc 1 375 31 view .LVU753
	jmp	.L85	#
.LVL163:
	.p2align 4,,10
	.p2align 3
.L78:
	.loc 1 375 31 is_stmt 0 view .LVU754
.LBE3616:
.LBE3620:
.LBE3624:
.LBE3628:
.LBE3638:
.LBE3657:
.LBE3676:
.LBE3699:
.LBE3722:
.LBE3741:
.LBE3760:
.LBE3779:
.LBE3825:
.LBE3846:
.LBE4215:
.LBB4216:
.LBB4198:
.LBB4190:
.LBB4179:
# /usr/include/boost/multi_array/base.hpp:485:     BOOST_ASSERT(dim == NDims);
	.loc 1 485 5 view .LVU755
	cmpq	$2, %r14	#, dim
	jne	.L80	#,
.LBB4090:
.LBB4091:
.LBB4092:
.LBB4093:
.LBB4094:
.LBB4095:
# /usr/include/boost/multi_array/algorithm.hpp:56:     *result = *first;
	.loc 12 56 5 view .LVU756
	movq	208(%rsp), %rsi	# MEM[(const long int *)&new_strides], MEM[(const long int *)&new_strides]
.LBE4095:
.LBE4094:
.LBB4099:
.LBB4100:
	movq	256(%rsp), %rax	# MEM[(const long int *)&new_extents], _647
.LBE4100:
.LBE4099:
# /usr/include/boost/multi_array/view.hpp:232:     base_(base), origin_offset_(0) {
	.loc 24 232 34 view .LVU757
	movq	$0, 520(%rsp)	#, MEM[(struct const_multi_array_view *)&view_new].origin_offset_
.LBB4105:
.LBB4101:
# /usr/include/boost/multi_array/algorithm.hpp:56:     *result = *first;
	.loc 12 56 5 view .LVU758
	movq	264(%rsp), %rdx	# MEM[(const long int *)&new_extents + 8B], _657
.LBE4101:
.LBE4105:
.LBE4093:
.LBE4092:
.LBE4091:
.LBE4090:
# /usr/include/boost/multi_array/base.hpp:490:                new_strides);
	.loc 1 490 27 view .LVU759
	movq	16(%rsp), %r14	# %sfp, _470
.LVL164:
.LBB4170:
.LBB4163:
.LBB4156:
.LBB4149:
.LBB4106:
.LBB4107:
.LBB4108:
.LBB4109:
.LBB4110:
.LBB4111:
# /usr/include/c++/9/bits/stl_algobase.h:772: 	*__first = __tmp;
	.loc 4 772 2 view .LVU760
	movq	$0, 568(%rsp)	#, MEM[(long int *)&view_new + 56B]
.LBE4111:
.LBE4110:
.LBE4109:
.LBE4108:
.LBE4107:
.LBE4106:
.LBB4122:
.LBB4096:
# /usr/include/boost/multi_array/algorithm.hpp:56:     *result = *first;
	.loc 12 56 5 view .LVU761
	movq	%rsi, 552(%rsp)	# MEM[(const long int *)&new_strides], MEM[(long int *)&view_new + 40B]
	movq	216(%rsp), %rsi	# MEM[(const long int *)&new_strides + 8B], MEM[(const long int *)&new_strides + 8B]
.LBE4096:
.LBE4122:
.LBE4149:
.LBE4156:
.LBE4163:
.LBE4170:
# /usr/include/boost/multi_array/base.hpp:490:                new_strides);
	.loc 1 490 27 view .LVU762
	addq	%r14, %r11	# _470, tmp321
.LVL165:
.LBB4171:
.LBB4164:
.LBB4157:
.LBB4150:
.LBB4123:
.LBB4102:
# /usr/include/boost/multi_array/algorithm.hpp:56:     *result = *first;
	.loc 12 56 5 view .LVU763
	movq	%rax, 536(%rsp)	# _647, MEM[(long unsigned int *)&view_new + 24B]
.LBE4102:
.LBE4123:
.LBB4124:
.LBB4097:
	movq	%rsi, 560(%rsp)	# MEM[(const long int *)&new_strides + 8B], MEM[(long int *)&view_new + 48B]
.LBE4097:
.LBE4124:
.LBB4125:
.LBB4126:
.LBB4127:
# /usr/include/c++/9/bits/stl_function.h:192:       { return __x * __y; }
	.loc 11 192 22 view .LVU764
	movq	%rax, %rsi	# _647, tmp325
.LBE4127:
.LBE4126:
.LBE4125:
.LBE4150:
.LBE4157:
.LBE4164:
.LBE4171:
.LBE4179:
.LBE4190:
.LBE4198:
.LBE4216:
.LBB4217:
.LBB4218:
.LBB4219:
.LBB4220:
.LBB4221:
.LBB4222:
.LBB4223:
# /usr/include/c++/9/bits/stl_algobase.h:834: 	    return !__builtin_memcmp(__first1, __first2, sizeof(_Tp) * __len);
	.loc 4 834 30 view .LVU765
	xorq	456(%rsp), %rax	# MEM[(void *)&view_old + 24B], tmp332
.LBE4223:
.LBE4222:
.LBE4221:
.LBE4220:
.LBE4219:
.LBE4218:
.LBE4217:
.LBB4303:
.LBB4199:
.LBB4191:
.LBB4180:
# /usr/include/boost/multi_array/base.hpp:490:                new_strides);
	.loc 1 490 27 view .LVU766
	leaq	(%rbx,%r11,8), %rcx	#, _427
.LVL166:
.LBB4172:
.LBI4090:
	.loc 24 431 12 is_stmt 1 view .LVU767
.LBB4165:
.LBI4091:
	.loc 24 229 12 view .LVU768
.LBB4158:
.LBB4151:
.LBB4132:
.LBI4132:
	.loc 1 294 3 view .LVU769
.LBB4133:
.LBI4133:
	.loc 1 143 3 view .LVU770
	.loc 1 143 3 is_stmt 0 view .LVU771
.LBE4133:
.LBE4132:
.LBB4134:
.LBI4106:
	.loc 15 178 14 is_stmt 1 view .LVU772
.LBB4120:
.LBI4107:
	.loc 15 179 14 view .LVU773
.LBB4118:
.LBI4108:
	.loc 4 802 5 view .LVU774
.LBB4116:
.LBI4109:
	.loc 4 767 5 view .LVU775
.LBB4114:
.LBB4112:
	.loc 4 771 13 view .LVU776
	.loc 4 770 7 view .LVU777
	.loc 4 771 13 view .LVU778
.LBE4112:
.LBE4114:
.LBE4116:
.LBE4118:
.LBE4120:
.LBE4134:
.LBB4135:
.LBB4129:
.LBB4128:
# /usr/include/c++/9/bits/stl_function.h:192:       { return __x * __y; }
	.loc 11 192 22 is_stmt 0 view .LVU779
	imulq	%rdx, %rsi	# _657, tmp325
.LBE4128:
.LBE4129:
.LBE4135:
.LBB4136:
.LBB4103:
# /usr/include/boost/multi_array/algorithm.hpp:56:     *result = *first;
	.loc 12 56 5 view .LVU780
	movq	%rdx, 544(%rsp)	# _657, MEM[(long unsigned int *)&view_new + 32B]
.LBE4103:
.LBE4136:
.LBE4151:
.LBE4158:
.LBE4165:
.LBE4172:
.LBE4180:
.LBE4191:
.LBE4199:
.LBE4303:
.LBB4304:
.LBB4300:
.LBB4232:
.LBB4230:
.LBB4228:
.LBB4226:
.LBB4224:
# /usr/include/c++/9/bits/stl_algobase.h:834: 	    return !__builtin_memcmp(__first1, __first2, sizeof(_Tp) * __len);
	.loc 4 834 30 view .LVU781
	xorq	464(%rsp), %rdx	# MEM[(void *)&view_old + 24B], tmp331
	orq	%rax, %rdx	# tmp332, tmp331
.LBE4224:
.LBE4226:
.LBE4228:
.LBE4230:
.LBE4232:
.LBE4300:
.LBE4304:
.LBB4305:
.LBB4200:
.LBB4192:
.LBB4181:
.LBB4173:
.LBB4166:
.LBB4159:
.LBB4152:
# /usr/include/boost/multi_array/view.hpp:232:     base_(base), origin_offset_(0) {
	.loc 24 232 34 view .LVU782
	movq	%rcx, 512(%rsp)	# _427, MEM[(struct const_multi_array_view *)&view_new].base_
.LBB4137:
.LBB4121:
.LBB4119:
.LBB4117:
.LBB4115:
.LBB4113:
# /usr/include/c++/9/bits/stl_algobase.h:772: 	*__first = __tmp;
	.loc 4 772 2 view .LVU783
	movq	$0, 576(%rsp)	#, MEM[(long int *)&view_new + 64B]
	.loc 4 770 7 is_stmt 1 view .LVU784
.LVL167:
	.loc 4 771 13 view .LVU785
	.loc 4 771 13 is_stmt 0 view .LVU786
.LBE4113:
.LBE4115:
.LBE4117:
.LBE4119:
.LBE4121:
.LBE4137:
.LBB4138:
.LBI4138:
	.loc 15 76 25 is_stmt 1 view .LVU787
	.loc 15 76 25 is_stmt 0 view .LVU788
.LBE4138:
.LBB4139:
.LBI4139:
	.loc 15 77 25 is_stmt 1 view .LVU789
	.loc 15 77 25 is_stmt 0 view .LVU790
.LBE4139:
.LBB4140:
.LBI4099:
	.loc 12 53 12 is_stmt 1 view .LVU791
.LBB4104:
	.loc 12 55 17 view .LVU792
	.loc 12 55 3 view .LVU793
	.loc 12 55 17 view .LVU794
	.loc 12 55 3 view .LVU795
	.loc 12 55 17 view .LVU796
	.loc 12 55 17 is_stmt 0 view .LVU797
.LBE4104:
.LBE4140:
.LBB4141:
.LBI4141:
	.loc 15 76 25 is_stmt 1 view .LVU798
	.loc 15 76 25 is_stmt 0 view .LVU799
.LBE4141:
.LBB4142:
.LBI4142:
	.loc 15 77 25 is_stmt 1 view .LVU800
	.loc 15 77 25 is_stmt 0 view .LVU801
.LBE4142:
.LBB4143:
.LBI4094:
	.loc 12 53 12 is_stmt 1 view .LVU802
.LBB4098:
	.loc 12 55 17 view .LVU803
	.loc 12 55 3 view .LVU804
	.loc 12 55 17 view .LVU805
	.loc 12 55 3 view .LVU806
	.loc 12 55 17 view .LVU807
	.loc 12 55 17 is_stmt 0 view .LVU808
.LBE4098:
.LBE4143:
.LBB4144:
.LBI4144:
	.loc 15 80 25 is_stmt 1 view .LVU809
	.loc 15 80 25 is_stmt 0 view .LVU810
.LBE4144:
.LBB4145:
.LBI4145:
	.loc 15 76 25 is_stmt 1 view .LVU811
	.loc 15 76 25 is_stmt 0 view .LVU812
.LBE4145:
.LBB4146:
.LBI4125:
	.loc 13 158 5 is_stmt 1 view .LVU813
	.loc 13 158 5 is_stmt 0 view .LVU814
.LBE4146:
.LBE4152:
.LBE4159:
.LBE4166:
.LBE4173:
.LBE4181:
.LBE4192:
.LBE4200:
.LBE4305:
	.loc 13 165 22 is_stmt 1 view .LVU815
.LBB4306:
.LBB4201:
.LBB4193:
.LBB4182:
.LBB4174:
.LBB4167:
.LBB4160:
.LBB4153:
.LBB4147:
.LBB4130:
.LBI4126:
	.loc 11 191 7 view .LVU816
	.loc 11 191 7 is_stmt 0 view .LVU817
.LBE4130:
.LBE4147:
.LBE4153:
.LBE4160:
.LBE4167:
.LBE4174:
.LBE4182:
.LBE4193:
.LBE4201:
.LBE4306:
	.loc 13 165 7 is_stmt 1 view .LVU818
	.loc 13 165 22 view .LVU819
.LBB4307:
.LBB4202:
.LBB4194:
.LBB4183:
.LBB4175:
.LBB4168:
.LBB4161:
.LBB4154:
.LBB4148:
.LBB4131:
	.loc 11 191 7 view .LVU820
	.loc 11 191 7 is_stmt 0 view .LVU821
.LBE4131:
.LBE4148:
.LBE4154:
.LBE4161:
.LBE4168:
.LBE4175:
.LBE4183:
.LBE4194:
.LBE4202:
.LBE4307:
	.loc 13 165 7 is_stmt 1 view .LVU822
	.loc 13 165 22 view .LVU823
.LBB4308:
.LBB4203:
.LBB4195:
.LBB4184:
.LBB4176:
.LBB4169:
.LBB4162:
.LBB4155:
# /usr/include/boost/multi_array/view.hpp:243:     num_elements_ = std::accumulate(extent_list_.begin(),extent_list_.end(),
	.loc 24 243 5 is_stmt 0 view .LVU824
	movq	%rsi, 528(%rsp)	# tmp325, MEM[(struct const_multi_array_view *)&view_new].num_elements_
.LVL168:
	.loc 24 243 5 view .LVU825
.LBE4155:
.LBE4162:
.LBE4169:
.LBE4176:
.LBE4184:
.LBE4195:
.LBE4203:
.LBE4308:
.LBB4309:
.LBI4217:
	.loc 24 310 21 is_stmt 1 view .LVU826
.LBB4301:
.LBB4233:
.LBI4233:
	.loc 24 104 20 view .LVU827
.LBB4234:
.LBI4234:
	.loc 15 164 18 view .LVU828
	.loc 15 164 18 is_stmt 0 view .LVU829
.LBE4234:
.LBE4233:
.LBB4235:
.LBI4235:
	.loc 24 104 20 is_stmt 1 view .LVU830
.LBB4236:
.LBI4236:
	.loc 15 164 18 view .LVU831
	.loc 15 164 18 is_stmt 0 view .LVU832
.LBE4236:
.LBE4235:
.LBB4237:
.LBI4219:
	.loc 4 1059 5 is_stmt 1 view .LVU833
.LBB4231:
.LBI4220:
	.loc 4 841 5 view .LVU834
.LBB4229:
.LBB4227:
.LBI4222:
	.loc 4 831 2 view .LVU835
.LBB4225:
# /usr/include/c++/9/bits/stl_algobase.h:834: 	    return !__builtin_memcmp(__first1, __first2, sizeof(_Tp) * __len);
	.loc 4 834 30 is_stmt 0 view .LVU836
	jne	.L81	#,
.LVL169:
	.loc 4 834 30 view .LVU837
.LBE4225:
.LBE4227:
.LBE4229:
.LBE4231:
.LBE4237:
.LBB4238:
.LBI4238:
	.loc 24 360 12 is_stmt 1 view .LVU838
.LBB4239:
.LBI4239:
	.loc 24 116 16 view .LVU839
.LBB4240:
.LBI4240:
	.loc 15 164 18 view .LVU840
	.loc 15 164 18 is_stmt 0 view .LVU841
.LBE4240:
.LBE4239:
.LBB4241:
.LBI4241:
	.loc 24 108 16 is_stmt 1 view .LVU842
.LBB4242:
.LBI4242:
	.loc 15 164 18 view .LVU843
	.loc 15 164 18 is_stmt 0 view .LVU844
.LBE4242:
.LBE4241:
.LBB4243:
.LBI4243:
	.loc 6 97 3 is_stmt 1 view .LVU845
.LBB4244:
.LBI4244:
	.loc 1 143 3 view .LVU846
	.loc 1 143 3 is_stmt 0 view .LVU847
.LBE4244:
.LBE4243:
.LBE4238:
.LBB4245:
.LBI4245:
	.loc 24 409 18 is_stmt 1 view .LVU848
.LBB4246:
.LBI4246:
	.loc 24 157 18 view .LVU849
.LBB4247:
.LBI4247:
	.loc 24 116 16 view .LVU850
.LBB4248:
.LBI4248:
	.loc 15 164 18 view .LVU851
	.loc 15 164 18 is_stmt 0 view .LVU852
.LBE4248:
.LBE4247:
.LBB4249:
.LBI4249:
	.loc 24 108 16 is_stmt 1 view .LVU853
.LBB4250:
.LBI4250:
	.loc 15 164 18 view .LVU854
	.loc 15 164 18 is_stmt 0 view .LVU855
.LBE4250:
.LBE4249:
.LBB4251:
.LBI4251:
	.loc 6 97 3 is_stmt 1 view .LVU856
.LBB4252:
.LBI4252:
	.loc 1 143 3 view .LVU857
	.loc 1 143 3 is_stmt 0 view .LVU858
.LBE4252:
.LBE4251:
.LBE4246:
.LBE4245:
.LBB4253:
.LBI4253:
	.loc 24 405 18 is_stmt 1 view .LVU859
.LBB4254:
.LBI4254:
	.loc 24 152 18 view .LVU860
.LBB4255:
.LBI4255:
	.loc 6 97 3 view .LVU861
.LBB4256:
.LBI4256:
	.loc 1 143 3 view .LVU862
	.loc 1 143 3 is_stmt 0 view .LVU863
.LBE4256:
.LBE4255:
.LBE4254:
.LBE4253:
.LBB4257:
.LBI4257:
	.loc 4 465 5 is_stmt 1 view .LVU864
.LBB4258:
.LBI4258:
	.loc 4 438 5 view .LVU865
.LBB4259:
.LBB4260:
.LBI4260:
	.loc 4 393 5 view .LVU866
.LBB4261:
# /usr/include/c++/9/bits/stl_algobase.h:404: 			      _Category>::__copy_m(__first, __last, __result);
	.loc 4 404 56 is_stmt 0 view .LVU867
	leaq	536(%rsp), %rax	#, tmp335
	movq	64(%rsp), %rsi	# %sfp, _349
	leaq	472(%rsp), %rdx	#, tmp343
	movq	%rcx, 264(%rsp)	# _427, MEM[(struct array_iterator *)&D.128792 + 8B]
	movq	%rax, 272(%rsp)	# tmp335, MEM[(struct array_iterator *)&D.128792 + 16B]
	leaq	552(%rsp), %rax	#, tmp337
	leaq	456(%rsp), %rcx	#, tmp341
	movq	%rax, 280(%rsp)	# tmp337, MEM[(struct array_iterator *)&D.128792 + 24B]
	leaq	568(%rsp), %rax	#, tmp339
	leaq	112(%rsp), %rdi	#, tmp488
	movq	%rax, 288(%rsp)	# tmp339, MEM[(struct array_iterator *)&D.128792 + 32B]
	movq	72(%rsp), %rax	# %sfp, _706
	movq	%rsi, 216(%rsp)	# _349, MEM[(struct array_iterator *)&D.128791 + 8B]
	movq	%rax, 208(%rsp)	# _706, MEM[(struct array_iterator *)&D.128791]
	leaq	488(%rsp), %rax	#, tmp345
	movq	%rcx, 224(%rsp)	# tmp341, MEM[(struct array_iterator *)&D.128791 + 16B]
	movq	%rdx, 232(%rsp)	# tmp343, MEM[(struct array_iterator *)&D.128791 + 24B]
	movq	%rsi, 168(%rsp)	# _349, MEM[(struct array_iterator *)&D.128790 + 8B]
	leaq	160(%rsp), %rsi	#, tmp487
	movq	%rcx, 176(%rsp)	# tmp341, MEM[(struct array_iterator *)&D.128790 + 16B]
	leaq	256(%rsp), %rcx	#, tmp485
	movq	%rdx, 184(%rsp)	# tmp343, MEM[(struct array_iterator *)&D.128790 + 24B]
	leaq	208(%rsp), %rdx	#, tmp486
	movq	%rax, 240(%rsp)	# tmp345, MEM[(struct array_iterator *)&D.128791 + 32B]
	movq	%rax, 192(%rsp)	# tmp345, MEM[(struct array_iterator *)&D.128790 + 32B]
	movq	$0, 256(%rsp)	#, MEM[(struct array_iterator *)&D.128792]
	movq	$0, 160(%rsp)	#, MEM[(struct array_iterator *)&D.128790]
	call	_ZNSt11__copy_moveILb0ELb0EN5boost9iterators6detail32iterator_category_with_traversalISt18input_iterator_tagNS1_27random_access_traversal_tagEEEE8__copy_mINS0_6detail11multi_array14array_iteratorIdPKdN4mpl_6size_tILm2EEENSA_15const_sub_arrayIdLm1ESD_EES5_EENSB_IdPdSG_NSA_9sub_arrayIdLm1EEES5_EEEET0_T_SP_SO_	#
.LVL170:
.LBB4262:
.LBI4262:
	.loc 6 52 7 is_stmt 1 view .LVU868
.LBB4263:
.LBI4263:
	.loc 1 144 3 view .LVU869
	.loc 1 144 3 is_stmt 0 view .LVU870
.LBE4263:
.LBE4262:
.LBB4264:
.LBI4264:
	.loc 6 52 7 is_stmt 1 view .LVU871
.LBB4265:
.LBI4265:
	.loc 1 144 3 view .LVU872
	.loc 1 144 3 is_stmt 0 view .LVU873
.LBE4265:
.LBE4264:
.LBB4266:
.LBI4266:
	.loc 6 52 7 is_stmt 1 view .LVU874
.LBB4267:
.LBI4267:
	.loc 1 144 3 view .LVU875
	.loc 1 144 3 is_stmt 0 view .LVU876
.LBE4267:
.LBE4266:
.LBE4261:
.LBE4260:
.LBB4268:
.LBI4268:
	.loc 6 52 7 is_stmt 1 view .LVU877
.LBB4269:
.LBI4269:
	.loc 1 144 3 view .LVU878
	.loc 1 144 3 is_stmt 0 view .LVU879
.LBE4269:
.LBE4268:
.LBB4270:
.LBI4270:
	.loc 6 52 7 is_stmt 1 view .LVU880
.LBB4271:
.LBI4271:
	.loc 1 144 3 view .LVU881
	.loc 1 144 3 is_stmt 0 view .LVU882
.LBE4271:
.LBE4270:
.LBB4272:
.LBI4272:
	.loc 6 52 7 is_stmt 1 view .LVU883
.LBB4273:
.LBI4273:
	.loc 1 144 3 view .LVU884
	.loc 1 144 3 is_stmt 0 view .LVU885
.LBE4273:
.LBE4272:
.LBB4274:
.LBI4274:
	.loc 6 52 7 is_stmt 1 view .LVU886
.LBB4275:
.LBI4275:
	.loc 1 144 3 view .LVU887
	.loc 1 144 3 is_stmt 0 view .LVU888
.LBE4275:
.LBE4274:
.LBB4276:
.LBI4276:
	.loc 6 52 7 is_stmt 1 view .LVU889
.LBB4277:
.LBI4277:
	.loc 1 144 3 view .LVU890
	.loc 1 144 3 is_stmt 0 view .LVU891
.LBE4277:
.LBE4276:
.LBB4278:
.LBI4278:
	.loc 6 52 7 is_stmt 1 view .LVU892
.LBB4279:
.LBI4279:
	.loc 1 144 3 view .LVU893
	.loc 1 144 3 is_stmt 0 view .LVU894
.LBE4279:
.LBE4278:
.LBB4280:
.LBI4280:
	.loc 6 52 7 is_stmt 1 view .LVU895
.LBB4281:
.LBI4281:
	.loc 1 144 3 view .LVU896
	.loc 1 144 3 is_stmt 0 view .LVU897
.LBE4281:
.LBE4280:
.LBE4259:
.LBE4258:
.LBB4282:
.LBI4282:
	.loc 6 52 7 is_stmt 1 view .LVU898
.LBB4283:
.LBI4283:
	.loc 1 144 3 view .LVU899
	.loc 1 144 3 is_stmt 0 view .LVU900
.LBE4283:
.LBE4282:
.LBB4284:
.LBI4284:
	.loc 6 52 7 is_stmt 1 view .LVU901
.LBB4285:
.LBI4285:
	.loc 1 144 3 view .LVU902
	.loc 1 144 3 is_stmt 0 view .LVU903
.LBE4285:
.LBE4284:
.LBB4286:
.LBI4286:
	.loc 6 52 7 is_stmt 1 view .LVU904
.LBB4287:
.LBI4287:
	.loc 1 144 3 view .LVU905
	.loc 1 144 3 is_stmt 0 view .LVU906
.LBE4287:
.LBE4286:
.LBB4288:
.LBI4288:
	.loc 6 52 7 is_stmt 1 view .LVU907
.LBB4289:
.LBI4289:
	.loc 1 144 3 view .LVU908
	.loc 1 144 3 is_stmt 0 view .LVU909
.LBE4289:
.LBE4288:
.LBB4290:
.LBI4290:
	.loc 6 52 7 is_stmt 1 view .LVU910
.LBB4291:
.LBI4291:
	.loc 1 144 3 view .LVU911
	.loc 1 144 3 is_stmt 0 view .LVU912
.LBE4291:
.LBE4290:
.LBE4257:
.LBB4292:
.LBI4292:
	.loc 6 52 7 is_stmt 1 view .LVU913
.LBB4293:
.LBI4293:
	.loc 1 144 3 view .LVU914
	.loc 1 144 3 is_stmt 0 view .LVU915
.LBE4293:
.LBE4292:
.LBB4294:
.LBI4294:
	.loc 6 52 7 is_stmt 1 view .LVU916
.LBB4295:
.LBI4295:
	.loc 1 144 3 view .LVU917
	.loc 1 144 3 is_stmt 0 view .LVU918
.LBE4295:
.LBE4294:
.LBB4296:
.LBI4296:
	.loc 6 52 7 is_stmt 1 view .LVU919
.LBB4297:
.LBI4297:
	.loc 1 144 3 view .LVU920
	.loc 1 144 3 is_stmt 0 view .LVU921
.LBE4297:
.LBE4296:
.LBB4298:
.LBI4298:
	.loc 6 52 7 is_stmt 1 view .LVU922
.LBB4299:
.LBI4299:
	.loc 1 144 3 view .LVU923
	.loc 1 144 3 is_stmt 0 view .LVU924
.LBE4299:
.LBE4298:
.LBE4301:
.LBE4309:
.LBB4310:
.LBI4310:
	.file 25 "/usr/include/c++/9/bits/move.h"
	.loc 25 182 5 is_stmt 1 view .LVU925
	.loc 25 182 5 is_stmt 0 view .LVU926
.LBE4310:
.LBB4312:
.LBB4313:
# /usr/include/c++/9/bits/move.h:193:       _Tp __tmp = _GLIBCXX_MOVE(__a);
	.loc 25 193 11 view .LVU927
	movq	104(%r12), %rdi	# MEM[(double * &)this_3(D) + 104], _10
.LBE4313:
.LBE4312:
.LBB4315:
.LBB4311:
# /usr/include/c++/9/bits/move.h:194:       __a = _GLIBCXX_MOVE(__b);
	.loc 25 194 7 view .LVU928
	movq	%rbx, (%r12)	# _142, MEM[(double * &)this_3(D)]
.LVL171:
	.loc 25 194 7 view .LVU929
.LBE4311:
.LBE4315:
.LBB4316:
.LBI4316:
	.loc 25 182 5 is_stmt 1 view .LVU930
.LBB4317:
.LBB4318:
.LBI4318:
	.loc 17 141 7 view .LVU931
.LBB4319:
.LBI4319:
	.loc 18 83 7 view .LVU932
	.loc 18 83 7 is_stmt 0 view .LVU933
.LBE4319:
.LBE4318:
.LBB4320:
.LBI4320:
	.loc 17 153 7 is_stmt 1 view .LVU934
.LBB4321:
.LBI4321:
	.loc 18 89 7 view .LVU935
	.loc 18 89 7 is_stmt 0 view .LVU936
.LBE4321:
.LBE4320:
.LBE4317:
.LBE4316:
.LBB4322:
.LBI4322:
	.loc 25 182 5 is_stmt 1 view .LVU937
.LBB4323:
# /usr/include/c++/9/bits/move.h:194:       __a = _GLIBCXX_MOVE(__b);
	.loc 25 194 7 is_stmt 0 view .LVU938
	movzwl	616(%rsp), %eax	# MEM[(struct general_storage_order *)&new_array + 8B], MEM[(struct general_storage_order *)&new_array + 8B]
.LBE4323:
.LBE4322:
.LBB4327:
.LBB4328:
	movq	%r14, 80(%r12)	# _470, MEM[(long int &)this_3(D) + 80]
.LBE4328:
.LBE4327:
.LBB4329:
.LBB4324:
	movdqu	600(%rsp), %xmm1	# MEM[(struct general_storage_order *)&new_array + 8B], tmp489
.LBE4324:
.LBE4329:
.LBB4330:
.LBB4314:
	movq	%rbx, 104(%r12)	# _142, MEM[(double * &)this_3(D) + 104]
.LBE4314:
.LBE4330:
.LBB4331:
.LBB4325:
	movw	%ax, 24(%r12)	# MEM[(struct general_storage_order *)&new_array + 8B], MEM[(struct general_storage_order *)this_3(D) + 8B]
.LVL172:
	.loc 25 194 7 view .LVU939
.LBE4325:
.LBE4331:
.LBB4332:
.LBI4332:
	.loc 15 350 17 is_stmt 1 view .LVU940
.LBB4333:
.LBB4334:
	.loc 15 159 37 view .LVU941
.LBB4335:
.LBI4335:
	.file 26 "/usr/include/boost/core/swap.hpp"
	.loc 26 61 3 view .LVU942
.LBB4336:
.LBI4336:
	.loc 26 39 8 view .LVU943
.LBB4337:
.LBB4338:
.LBI4338:
	.loc 25 182 5 view .LVU944
.LBB4339:
# /usr/include/c++/9/bits/move.h:194:       __a = _GLIBCXX_MOVE(__b);
	.loc 25 194 7 is_stmt 0 view .LVU945
	movq	8(%rsp), %rax	# %sfp, _896
.LBE4339:
.LBE4338:
.LBE4337:
.LBE4336:
.LBE4335:
.LBE4334:
.LBE4333:
.LBE4332:
.LBB4352:
.LBB4326:
	movups	%xmm1, 8(%r12)	# tmp489, MEM[(struct general_storage_order *)this_3(D) + 8B]
.LBE4326:
.LBE4352:
.LBB4353:
.LBB4351:
.LBB4350:
.LBB4348:
.LBB4346:
.LBB4344:
.LBB4342:
.LBB4340:
	movq	%rax, 32(%r12)	# _896, MEM[(long unsigned int &)this_3(D) + 32]
.LVL173:
	.loc 25 194 7 view .LVU946
.LBE4340:
.LBE4342:
.LBE4344:
.LBE4346:
.LBE4348:
	.loc 15 159 13 is_stmt 1 view .LVU947
	.loc 15 159 37 view .LVU948
.LBB4349:
	.loc 26 61 3 view .LVU949
.LBB4347:
	.loc 26 39 8 view .LVU950
.LBB4345:
.LBB4343:
	.loc 25 182 5 view .LVU951
.LBB4341:
# /usr/include/c++/9/bits/move.h:194:       __a = _GLIBCXX_MOVE(__b);
	.loc 25 194 7 is_stmt 0 view .LVU952
	movq	32(%rsp), %rax	# %sfp, _906
	movq	%rax, 40(%r12)	# _906, MEM[(long unsigned int &)this_3(D) + 32]
.LVL174:
	.loc 25 194 7 view .LVU953
.LBE4341:
.LBE4343:
.LBE4345:
.LBE4347:
.LBE4349:
	.loc 15 159 13 is_stmt 1 view .LVU954
	.loc 15 159 37 view .LVU955
	.loc 15 159 37 is_stmt 0 view .LVU956
.LBE4350:
.LBE4351:
.LBE4353:
.LBB4354:
.LBB4355:
.LBB4356:
	.loc 15 159 37 is_stmt 1 view .LVU957
.LBB4357:
.LBI4357:
	.loc 26 61 3 view .LVU958
.LBB4358:
.LBI4358:
	.loc 26 39 8 view .LVU959
.LBB4359:
.LBB4360:
.LBI4360:
	.loc 25 182 5 view .LVU960
.LBB4361:
# /usr/include/c++/9/bits/move.h:194:       __a = _GLIBCXX_MOVE(__b);
	.loc 25 194 7 is_stmt 0 view .LVU961
	movq	80(%rsp), %rax	# %sfp, pretmp_563
	movq	%rax, 48(%r12)	# pretmp_563, MEM[(long int &)this_3(D) + 48]
.LVL175:
	.loc 25 194 7 view .LVU962
.LBE4361:
.LBE4360:
.LBE4359:
.LBE4358:
.LBE4357:
	.loc 15 159 13 is_stmt 1 view .LVU963
	.loc 15 159 37 view .LVU964
.LBB4366:
	.loc 26 61 3 view .LVU965
.LBB4365:
	.loc 26 39 8 view .LVU966
.LBB4364:
.LBB4363:
	.loc 25 182 5 view .LVU967
.LBB4362:
# /usr/include/c++/9/bits/move.h:194:       __a = _GLIBCXX_MOVE(__b);
	.loc 25 194 7 is_stmt 0 view .LVU968
	movq	88(%rsp), %rax	# %sfp, pretmp_195
	movq	%rax, 56(%r12)	# pretmp_195, MEM[(long int &)this_3(D) + 48]
.LVL176:
	.loc 25 194 7 view .LVU969
.LBE4362:
.LBE4363:
.LBE4364:
.LBE4365:
.LBE4366:
	.loc 15 159 13 is_stmt 1 view .LVU970
	.loc 15 159 37 view .LVU971
	.loc 15 159 37 is_stmt 0 view .LVU972
.LBE4356:
.LBE4355:
.LBE4354:
.LBB4367:
.LBB4368:
.LBB4369:
	.loc 15 159 37 is_stmt 1 view .LVU973
.LBB4370:
.LBI4370:
	.loc 26 61 3 view .LVU974
.LBB4371:
.LBI4371:
	.loc 26 39 8 view .LVU975
.LBB4372:
.LBB4373:
.LBI4373:
	.loc 25 182 5 view .LVU976
.LBB4374:
# /usr/include/c++/9/bits/move.h:194:       __a = _GLIBCXX_MOVE(__b);
	.loc 25 194 7 is_stmt 0 view .LVU977
	movq	24(%rsp), %rax	# %sfp, pretmp_803
	movq	%rax, 64(%r12)	# pretmp_803, MEM[(long int &)this_3(D) + 64]
.LVL177:
	.loc 25 194 7 view .LVU978
.LBE4374:
.LBE4373:
.LBE4372:
.LBE4371:
.LBE4370:
	.loc 15 159 13 is_stmt 1 view .LVU979
	.loc 15 159 37 view .LVU980
.LBB4379:
	.loc 26 61 3 view .LVU981
.LBB4378:
	.loc 26 39 8 view .LVU982
.LBB4377:
.LBB4376:
	.loc 25 182 5 view .LVU983
.LBB4375:
# /usr/include/c++/9/bits/move.h:194:       __a = _GLIBCXX_MOVE(__b);
	.loc 25 194 7 is_stmt 0 view .LVU984
	movq	48(%rsp), %rax	# %sfp, pretmp_143
	movq	%rax, 72(%r12)	# pretmp_143, MEM[(long int &)this_3(D) + 64]
.LVL178:
	.loc 25 194 7 view .LVU985
.LBE4375:
.LBE4376:
.LBE4377:
.LBE4378:
.LBE4379:
	.loc 15 159 13 is_stmt 1 view .LVU986
	.loc 15 159 37 view .LVU987
	.loc 15 159 37 is_stmt 0 view .LVU988
.LBE4369:
.LBE4368:
.LBE4367:
.LBB4380:
.LBI4327:
	.loc 25 182 5 is_stmt 1 view .LVU989
	.loc 25 182 5 is_stmt 0 view .LVU990
.LBE4380:
.LBB4381:
.LBI4381:
	.loc 25 182 5 is_stmt 1 view .LVU991
.LBB4382:
# /usr/include/c++/9/bits/move.h:194:       __a = _GLIBCXX_MOVE(__b);
	.loc 25 194 7 is_stmt 0 view .LVU992
	movq	56(%rsp), %rax	# %sfp, offset
	movq	%rax, 88(%r12)	# offset, MEM[(long int &)this_3(D) + 88]
.LVL179:
	.loc 25 194 7 view .LVU993
.LBE4382:
.LBE4381:
.LBB4383:
.LBI4383:
	.loc 25 182 5 is_stmt 1 view .LVU994
.LBB4384:
# /usr/include/c++/9/bits/move.h:194:       __a = _GLIBCXX_MOVE(__b);
	.loc 25 194 7 is_stmt 0 view .LVU995
	movq	40(%rsp), %rax	# %sfp, _140
	movq	%rax, 96(%r12)	# _140, MEM[(long unsigned int &)this_3(D) + 96]
.LVL180:
	.loc 25 194 7 view .LVU996
.LBE4384:
.LBE4383:
.LBB4385:
.LBI4312:
	.loc 25 182 5 is_stmt 1 view .LVU997
	.loc 25 182 5 is_stmt 0 view .LVU998
.LBE4385:
.LBB4386:
.LBI4386:
	.loc 25 182 5 is_stmt 1 view .LVU999
.LBB4387:
# /usr/include/c++/9/bits/move.h:194:       __a = _GLIBCXX_MOVE(__b);
	.loc 25 194 7 is_stmt 0 view .LVU1000
	movq	%rax, 112(%r12)	# _140, MEM[(long unsigned int &)this_3(D) + 112]
.LVL181:
	.loc 25 194 7 view .LVU1001
.LBE4387:
.LBE4386:
.LBB4388:
.LBI4388:
	.loc 24 264 7 is_stmt 1 view .LVU1002
.LBB4389:
.LBB4390:
.LBI4390:
	.loc 24 41 7 view .LVU1003
.LBB4391:
.LBI4391:
	.loc 1 295 3 view .LVU1004
.LBB4392:
.LBI4392:
	.loc 1 144 3 view .LVU1005
	.loc 1 144 3 is_stmt 0 view .LVU1006
.LBE4392:
.LBE4391:
.LBE4390:
.LBE4389:
.LBE4388:
.LBB4393:
.LBI4393:
	.loc 24 264 7 is_stmt 1 view .LVU1007
.LBB4394:
.LBB4395:
.LBI4395:
	.loc 24 41 7 view .LVU1008
.LBB4396:
.LBI4396:
	.loc 1 295 3 view .LVU1009
.LBB4397:
.LBI4397:
	.loc 1 144 3 view .LVU1010
	.loc 1 144 3 is_stmt 0 view .LVU1011
.LBE4397:
.LBE4396:
.LBE4395:
.LBE4394:
.LBE4393:
.LBB4398:
.LBI4398:
	.loc 7 519 3 is_stmt 1 view .LVU1012
.LBB4399:
.LBI4399:
	.loc 7 551 8 view .LVU1013
.LBB4400:
# /usr/include/boost/multi_array.hpp:552:     if(base_) {
	.loc 7 552 5 is_stmt 0 view .LVU1014
	testq	%rdi, %rdi	# _10
	je	.L100	#,
.LVL182:
	.loc 7 552 5 view .LVU1015
.LBE4400:
.LBE4399:
.LBE4398:
	.loc 19 25 14 is_stmt 1 view .LVU1016
.LBB4412:
.LBB4404:
.LBB4403:
.LBB4401:
.LBI4401:
	.loc 18 119 7 view .LVU1017
.LBB4402:
# /usr/include/c++/9/ext/new_allocator.h:128: 	::operator delete(__p);
	.loc 18 128 19 is_stmt 0 view .LVU1018
	call	_ZdlPv	#
.LVL183:
	.loc 18 128 19 view .LVU1019
.LBE4402:
.LBE4401:
.LBE4403:
.LBE4404:
.LBB4405:
.LBI4405:
	.loc 16 90 7 is_stmt 1 view .LVU1020
.LBB4406:
.LBI4406:
	.loc 17 153 7 view .LVU1021
.LBB4407:
.LBI4407:
	.loc 18 89 7 view .LVU1022
	.loc 18 89 7 is_stmt 0 view .LVU1023
.LBE4407:
.LBE4406:
.LBE4405:
.LBB4408:
.LBI4408:
	.loc 2 412 7 is_stmt 1 view .LVU1024
.LBB4409:
.LBI4409:
	.loc 2 44 7 view .LVU1025
.LBB4410:
.LBI4410:
	.loc 1 295 3 view .LVU1026
.LBB4411:
.LBI4411:
	.loc 1 144 3 view .LVU1027
.L100:
	.loc 1 144 3 is_stmt 0 view .LVU1028
.LBE4411:
.LBE4410:
.LBE4409:
.LBE4408:
.LBE4412:
# /usr/include/boost/multi_array.hpp:516:   }
	.loc 7 516 3 view .LVU1029
	addq	$728, %rsp	#,
	.cfi_remember_state
	.cfi_def_cfa_offset 56
	movq	%r12, %rax	# this,
	popq	%rbx	#
	.cfi_def_cfa_offset 48
	popq	%rbp	#
	.cfi_def_cfa_offset 40
	popq	%r12	#
	.cfi_def_cfa_offset 32
.LVL184:
	.loc 7 516 3 view .LVU1030
	popq	%r13	#
	.cfi_def_cfa_offset 24
	popq	%r14	#
	.cfi_def_cfa_offset 16
	popq	%r15	#
	.cfi_def_cfa_offset 8
	ret	
.LVL185:
	.p2align 4,,10
	.p2align 3
.L81:
	.cfi_restore_state
.LBB4413:
.LBB4302:
# /usr/include/boost/multi_array/view.hpp:314:       BOOST_ASSERT(std::equal(other.shape(),
	.loc 24 314 7 view .LVU1031
	movl	$.LC20, %ecx	#,
	movl	$314, %edx	#,
	movl	$.LC21, %esi	#,
	movl	$.LC22, %edi	#,
	call	__assert_fail	#
.LVL186:
	.p2align 4,,10
	.p2align 3
.L52:
	.loc 24 314 7 view .LVU1032
.LBE4302:
.LBE4413:
	.loc 13 165 7 is_stmt 1 view .LVU1033
	.loc 13 165 22 view .LVU1034
	.loc 1 392 29 view .LVU1035
	.loc 1 392 5 view .LVU1036
	.loc 1 392 29 view .LVU1037
	.loc 1 392 5 view .LVU1038
	.loc 1 392 29 view .LVU1039
.LBB4414:
.LBB3847:
.LBB3826:
.LBB3780:
.LBB3761:
.LBB3742:
.LBB3723:
.LBB3700:
.LBB3677:
.LBB3658:
.LBB3639:
.LBB3629:
# /usr/include/boost/multi_array/base.hpp:373:     index offset = 0;
	.loc 1 373 11 is_stmt 0 view .LVU1040
	movq	$0, 56(%rsp)	#, %sfp
.LBE3629:
.LBE3639:
# /usr/include/boost/multi_array/multi_array_ref.hpp:402:     origin_offset_ =
	.loc 2 402 5 view .LVU1041
	movq	16(%rsp), %rax	# %sfp, _470
	movq	%rax, 672(%rsp)	# _470, MEM[(struct const_multi_array_ref *)&new_array].origin_offset_
.LVL187:
.LBB3640:
	.loc 1 369 3 is_stmt 1 view .LVU1042
	.loc 1 369 3 is_stmt 0 view .LVU1043
.LBE3640:
.LBE3658:
.LBE3677:
.LBE3700:
.LBE3723:
.LBE3742:
.LBE3761:
.LBE3780:
.LBE3826:
.LBE3847:
.LBE4414:
	.loc 13 165 22 is_stmt 1 view .LVU1044
	.loc 13 165 7 view .LVU1045
	.loc 13 165 22 view .LVU1046
	.loc 13 165 22 is_stmt 0 view .LVU1047
	jmp	.L85	#
.LVL188:
.L119:
	.loc 1 392 29 is_stmt 1 view .LVU1048
	.loc 1 392 5 view .LVU1049
	.loc 1 392 29 view .LVU1050
	.loc 1 392 5 view .LVU1051
	.loc 1 392 29 view .LVU1052
.LBB4415:
.LBB3848:
.LBB3827:
.LBB3781:
.LBB3762:
.LBB3743:
.LBB3724:
.LBB3701:
.LBB3678:
.LBB3659:
.LBB3641:
.LBB3605:
.LBB3598:
.LBB3593:
.LBB3588:
.LBB3585:
.LBB3583:
# /usr/include/boost/multi_array/base.hpp:377:           offset -= (extent_list[n] - 1) * stride_list[n];
	.loc 1 377 37 is_stmt 0 view .LVU1053
	movq	32(%rsp), %rbx	# %sfp, _906
# /usr/include/boost/multi_array/base.hpp:377:           offset -= (extent_list[n] - 1) * stride_list[n];
	.loc 1 377 18 view .LVU1054
	negq	%rax	# tmp360
.LVL189:
	.loc 1 377 18 view .LVU1055
	movq	%rax, %rcx	# tmp360, offset
# /usr/include/boost/multi_array/base.hpp:377:           offset -= (extent_list[n] - 1) * stride_list[n];
	.loc 1 377 37 view .LVU1056
	leaq	-1(%rbx), %rdx	#, tmp361
# /usr/include/boost/multi_array/base.hpp:377:           offset -= (extent_list[n] - 1) * stride_list[n];
	.loc 1 377 42 view .LVU1057
	imulq	88(%rsp), %rdx	# %sfp, tmp362
# /usr/include/boost/multi_array/base.hpp:377:           offset -= (extent_list[n] - 1) * stride_list[n];
	.loc 1 377 18 view .LVU1058
	subq	%rdx, %rcx	# tmp362, offset
.LBE3583:
.LBE3585:
.LBE3588:
.LBE3593:
.LBE3598:
# /usr/include/boost/multi_array/base.hpp:362:       calculate_indexing_offset(stride_list,index_base_list);
	.loc 1 362 60 view .LVU1059
	addq	%rcx, 16(%rsp)	# offset, %sfp
	movq	16(%rsp), %rbx	# %sfp, _470
.LBE3605:
.LBE3641:
# /usr/include/boost/multi_array/multi_array_ref.hpp:402:     origin_offset_ =
	.loc 2 402 5 view .LVU1060
	movq	%rbx, 672(%rsp)	# _470, MEM[(struct const_multi_array_ref *)&new_array].origin_offset_
.LVL190:
.LBB3642:
	.loc 1 369 3 is_stmt 1 view .LVU1061
	.loc 1 369 3 is_stmt 0 view .LVU1062
.LBE3642:
.LBE3659:
.LBE3678:
.LBE3701:
.LBE3724:
.LBE3743:
.LBE3762:
.LBE3781:
.LBE3827:
.LBE3848:
.LBE4415:
	.loc 13 165 22 is_stmt 1 view .LVU1063
	.loc 13 165 7 view .LVU1064
	.loc 13 165 22 view .LVU1065
	.loc 13 165 7 view .LVU1066
	.loc 13 165 22 view .LVU1067
.LBB4416:
.LBB3849:
.LBB3828:
.LBB3782:
.LBB3763:
.LBB3744:
.LBB3725:
.LBB3702:
.LBB3679:
.LBB3660:
.LBB3643:
.LBB3630:
.LBB3625:
.LBB3621:
.LBB3617:
	.loc 1 375 31 view .LVU1068
	.loc 1 375 7 view .LVU1069
	.loc 1 375 31 view .LVU1070
	.loc 1 375 31 is_stmt 0 view .LVU1071
	jmp	.L87	#
.LVL191:
.L66:
	.loc 1 375 31 view .LVU1072
.LBE3617:
.LBE3621:
.LBE3625:
.LBE3630:
.LBE3643:
.LBE3660:
.LBE3679:
.LBE3702:
.LBE3725:
.LBE3744:
.LBE3763:
.LBE3782:
.LBE3828:
.LBE3849:
.LBE4416:
.LBB4417:
.LBB4003:
.LBB3993:
.LBB3981:
.LBB3973:
.LBB3903:
# /usr/include/boost/multi_array/base.hpp:464:       BOOST_ASSERT(((index_bases[n] - bound_adjustment) <= finish) &&
	.loc 1 464 7 view .LVU1073
	movl	$.LC14, %ecx	#,
	movl	$464, %edx	#,
	movl	$.LC1, %esi	#,
	movl	$.LC17, %edi	#,
	call	__assert_fail	#
.LVL192:
.L64:
# /usr/include/boost/multi_array/base.hpp:455:       BOOST_ASSERT(index_bases[n] <= start &&
	.loc 1 455 7 view .LVU1074
	movl	$.LC14, %ecx	#,
	movl	$455, %edx	#,
	movl	$.LC1, %esi	#,
	movl	$.LC16, %edi	#,
	call	__assert_fail	#
.LVL193:
.L72:
# /usr/include/boost/multi_array/base.hpp:430:       BOOST_ASSERT(stride != 0);
	.loc 1 430 7 view .LVU1075
	movl	$.LC14, %ecx	#,
	movl	$430, %edx	#,
	movl	$.LC1, %esi	#,
	movl	$.LC15, %edi	#,
	call	__assert_fail	#
.LVL194:
.L47:
	.loc 1 430 7 view .LVU1076
.LBE3903:
.LBE3973:
.LBE3981:
.LBE3993:
.LBE4003:
.LBE4417:
.LBB4418:
.LBB3850:
.LBB3829:
.LBB3783:
.LBB3764:
.LBB3745:
.LBB3726:
.LBB3703:
.LBB3680:
.LBB3661:
.LBB3644:
.LBB3561:
.LBB3559:
.LBB3556:
.LBB3552:
.LBB3544:
.LBB3541:
.LBB3538:
# /usr/include/boost/array.hpp:123:             return BOOST_ASSERT_MSG( i < N, "out of range" ), elems[i]; 
	.loc 15 123 20 view .LVU1077
	movl	$.LC10, %ecx	#,
	movl	$123, %edx	#,
	movl	$.LC11, %esi	#,
.LVL195:
	.loc 15 123 20 view .LVU1078
	movl	$.LC12, %edi	#,
.LVL196:
	.loc 15 123 20 view .LVU1079
	call	__assert_fail	#
.LVL197:
.L77:
	.loc 15 123 20 view .LVU1080
.LBE3538:
.LBE3541:
.LBE3544:
.LBE3552:
.LBE3556:
.LBE3559:
.LBE3561:
.LBE3644:
.LBE3661:
.LBE3680:
.LBE3703:
.LBE3726:
.LBE3745:
.LBE3764:
.LBE3783:
.LBE3829:
.LBE3850:
.LBE4418:
.LBB4419:
.LBB4004:
.LBB3994:
.LBB3982:
.LBB3974:
.LBB3904:
.LBB3902:
.LBB3900:
# /usr/include/boost/array.hpp:118:             return BOOST_ASSERT_MSG( i < N, "out of range" ), elems[i]; 
	.loc 15 118 20 view .LVU1081
	movl	$.LC18, %ecx	#,
	movl	$118, %edx	#,
	movl	$.LC11, %esi	#,
	movl	$.LC12, %edi	#,
	call	__assert_fail	#
.LVL198:
.L80:
	.loc 15 118 20 view .LVU1082
.LBE3900:
.LBE3902:
.LBE3904:
.LBE3974:
# /usr/include/boost/multi_array/base.hpp:485:     BOOST_ASSERT(dim == NDims);
	.loc 1 485 5 view .LVU1083
	movl	$.LC14, %ecx	#,
	movl	$485, %edx	#,
	movl	$.LC1, %esi	#,
	movl	$.LC19, %edi	#,
	call	__assert_fail	#
.LVL199:
.L118:
	.loc 1 485 5 view .LVU1084
.LBE3982:
.LBE3994:
.LBE4004:
.LBE4419:
.LBB4420:
.LBB3851:
.LBB3830:
.LBB3819:
.LBB3817:
.LBB3802:
# /usr/include/c++/9/ext/new_allocator.h:105: 	  std::__throw_bad_alloc();
	.loc 18 105 26 view .LVU1085
	call	_ZSt17__throw_bad_allocv	#
.LVL200:
.LBE3802:
.LBE3817:
.LBE3819:
.LBE3830:
.LBE3851:
.LBE4420:
	.cfi_endproc
.LFE5416:
	.size	_ZN5boost11multi_arrayIdLm2ESaIdEE6resizeERKNS_6detail11multi_array10extent_genILm2EEE, .-_ZN5boost11multi_arrayIdLm2ESaIdEE6resizeERKNS_6detail11multi_array10extent_genILm2EEE
	.text
	.p2align 4
	.globl	_Z7FI_RatedP9Variables
	.type	_Z7FI_RatedP9Variables, @function
_Z7FI_RatedP9Variables:
.LVL201:
.LFB5051:
	.file 27 "FI_Rate.cpp"
	.loc 27 30 40 is_stmt 1 view -0
	.cfi_startproc
	.loc 27 30 40 is_stmt 0 view .LVU1087
	pushq	%rbp	#
	.cfi_def_cfa_offset 16
	.cfi_offset 6, -16
	pushq	%rbx	#
	.cfi_def_cfa_offset 24
	.cfi_offset 3, -24
	movq	%rdi, %rbx	# tmp1088, myVars
	subq	$984, %rsp	#,
	.cfi_def_cfa_offset 1008
# FI_Rate.cpp:39:     const double kA_d = myVars->FI_RC[0];	//	The rate constant of heat dissipation from peripheral antenna	Lazar (1999), 0.25~1 *10^(9)
	.loc 27 39 40 view .LVU1088
	movq	3088(%rdi), %rax	# MEM[(double * *)myVars_278(D) + 3088B], _649
# FI_Rate.cpp:30: void FI_Rate(double t, varptr *myVars) {
	.loc 27 30 40 view .LVU1089
	movsd	%xmm0, 128(%rsp)	# tmp1087, %sfp
	.loc 27 39 5 is_stmt 1 view .LVU1090
.LVL202:
# FI_Rate.cpp:39:     const double kA_d = myVars->FI_RC[0];	//	The rate constant of heat dissipation from peripheral antenna	Lazar (1999), 0.25~1 *10^(9)
	.loc 27 39 40 is_stmt 0 view .LVU1091
	movsd	(%rax), %xmm7	# MEM[(value_type &)_649], kA_d
# FI_Rate.cpp:41:     const double kA_U = myVars->FI_RC[2];	//	The rate constant of exciton transfer from periphral antenna to core antenna	Reference needed, a guess
	.loc 27 41 40 view .LVU1092
	movsd	16(%rax), %xmm5	# MEM[(value_type &)_649 + 16], kA_U
# FI_Rate.cpp:46:     const double k_r1 = myVars->FI_RC[7];	//	The rate constant of charge recombination for open reactoin center
	.loc 27 46 40 view .LVU1093
	movsd	56(%rax), %xmm3	# MEM[(value_type &)_649 + 56], k_r1
# FI_Rate.cpp:49:     const double k23 = myVars->FI_RC[10];	//	The rate constant of the S2 to S3 transition	Lazar (1999); 0.667~33.3 * 10^3
	.loc 27 49 40 view .LVU1094
	movsd	80(%rax), %xmm6	# MEM[(value_type &)_649 + 80], k23
# FI_Rate.cpp:39:     const double kA_d = myVars->FI_RC[0];	//	The rate constant of heat dissipation from peripheral antenna	Lazar (1999), 0.25~1 *10^(9)
	.loc 27 39 40 view .LVU1095
	movsd	%xmm7, 136(%rsp)	# kA_d, %sfp
.LVL203:
	.loc 27 40 5 is_stmt 1 view .LVU1096
# FI_Rate.cpp:40:     const double kA_f = myVars->FI_RC[1];	//	The rate constant of fluorescence emission from peripheral antenna	Lazar 1999, with a lifetime of 5 ns at closed reaction center
	.loc 27 40 40 is_stmt 0 view .LVU1097
	movsd	8(%rax), %xmm7	# MEM[(value_type &)_649 + 8], kA_f
.LVL204:
# FI_Rate.cpp:45:     const double k1 = myVars->FI_RC[6];	//	The rate constant of primary charge separation for open reaction center
	.loc 27 45 38 view .LVU1098
	movsd	48(%rax), %xmm12	# MEM[(value_type &)_649 + 48], k1
# FI_Rate.cpp:41:     const double kA_U = myVars->FI_RC[2];	//	The rate constant of exciton transfer from periphral antenna to core antenna	Reference needed, a guess
	.loc 27 41 40 view .LVU1099
	movsd	%xmm5, 16(%rsp)	# kA_U, %sfp
# FI_Rate.cpp:43:     const double kU_d = myVars->FI_RC[4];	//	The rate constant of  heat emission from core antenna
	.loc 27 43 40 view .LVU1100
	movsd	32(%rax), %xmm5	# MEM[(value_type &)_649 + 32], kU_d
# FI_Rate.cpp:47:     const double kz = myVars->FI_RC[8];	//	The rate constant of the Tyrosine oxidation	Lazar (1999); 3.8~50 * 10^6
	.loc 27 47 38 view .LVU1101
	movsd	64(%rax), %xmm4	# MEM[(value_type &)_649 + 64], kz
# FI_Rate.cpp:40:     const double kA_f = myVars->FI_RC[1];	//	The rate constant of fluorescence emission from peripheral antenna	Lazar 1999, with a lifetime of 5 ns at closed reaction center
	.loc 27 40 40 view .LVU1102
	movsd	%xmm7, 144(%rsp)	# kA_f, %sfp
.LVL205:
	.loc 27 41 5 is_stmt 1 view .LVU1103
	.loc 27 42 5 view .LVU1104
# FI_Rate.cpp:42:     const double kU_A = myVars->FI_RC[3];	//	The rate constant of exciton transfer from core antenna to peripheral antenna	Reference needed, a guess
	.loc 27 42 40 is_stmt 0 view .LVU1105
	movsd	24(%rax), %xmm7	# MEM[(value_type &)_649 + 24], kU_A
.LVL206:
# FI_Rate.cpp:43:     const double kU_d = myVars->FI_RC[4];	//	The rate constant of  heat emission from core antenna
	.loc 27 43 40 view .LVU1106
	movsd	%xmm5, 24(%rsp)	# kU_d, %sfp
# FI_Rate.cpp:48:     const double k12 = myVars->FI_RC[9];	//	The rate constant of the S1 to S2 transition	Lazar (1999); 0.667~33.3 * 10^3
	.loc 27 48 39 view .LVU1107
	movsd	72(%rax), %xmm5	# MEM[(value_type &)_649 + 72], k12
# FI_Rate.cpp:42:     const double kU_A = myVars->FI_RC[3];	//	The rate constant of exciton transfer from core antenna to peripheral antenna	Reference needed, a guess
	.loc 27 42 40 view .LVU1108
	movsd	%xmm7, 56(%rsp)	# kU_A, %sfp
.LVL207:
	.loc 27 43 5 is_stmt 1 view .LVU1109
	.loc 27 44 5 view .LVU1110
# FI_Rate.cpp:44:     const double kU_f = myVars->FI_RC[5];	//	The rate constant of fluorescence emission from core antenna
	.loc 27 44 40 is_stmt 0 view .LVU1111
	movsd	40(%rax), %xmm7	# MEM[(value_type &)_649 + 40], kU_f
.LVL208:
# FI_Rate.cpp:46:     const double k_r1 = myVars->FI_RC[7];	//	The rate constant of charge recombination for open reactoin center
	.loc 27 46 40 view .LVU1112
	movsd	%xmm3, 72(%rsp)	# k_r1, %sfp
# FI_Rate.cpp:51:     const double k01 = myVars->FI_RC[12];	//	The rate constant of the S0 to S1 transition	Lazar (1999); 0.667~33.3 * 10^3
	.loc 27 51 40 view .LVU1113
	movsd	96(%rax), %xmm3	# MEM[(value_type &)_649 + 96], k01
# FI_Rate.cpp:44:     const double kU_f = myVars->FI_RC[5];	//	The rate constant of fluorescence emission from core antenna
	.loc 27 44 40 view .LVU1114
	movsd	%xmm7, 152(%rsp)	# kU_f, %sfp
.LVL209:
	.loc 27 45 5 is_stmt 1 view .LVU1115
	.loc 27 46 5 view .LVU1116
	.loc 27 47 5 view .LVU1117
	.loc 27 48 5 view .LVU1118
# FI_Rate.cpp:50:     const double k30 = myVars->FI_RC[11];	//	The rate constant of the S3 to S0 transition	Lazar (1999); 0.667~33.3 * 10^3
	.loc 27 50 40 is_stmt 0 view .LVU1119
	movsd	88(%rax), %xmm7	# MEM[(value_type &)_649 + 88], k30
.LVL210:
# FI_Rate.cpp:49:     const double k23 = myVars->FI_RC[10];	//	The rate constant of the S2 to S3 transition	Lazar (1999); 0.667~33.3 * 10^3
	.loc 27 49 40 view .LVU1120
	movsd	%xmm6, 88(%rsp)	# k23, %sfp
# FI_Rate.cpp:53:     const double kAB1 = myVars->FI_RC[14];	//	The rate constant of QAQB-->QAQB-	Lazar (1999); 2.5~5 * 10^3
	.loc 27 53 41 view .LVU1121
	movsd	112(%rax), %xmm6	# MEM[(value_type &)_649 + 112], kAB1
# FI_Rate.cpp:48:     const double k12 = myVars->FI_RC[9];	//	The rate constant of the S1 to S2 transition	Lazar (1999); 0.667~33.3 * 10^3
	.loc 27 48 39 view .LVU1122
	movsd	%xmm5, 80(%rsp)	# k12, %sfp
.LVL211:
	.loc 27 49 5 is_stmt 1 view .LVU1123
	.loc 27 50 5 view .LVU1124
# FI_Rate.cpp:52:     const double k2 = myVars->FI_RC[13];	//	The rate constant of the QA reduction by Pheo-	Lazar (1999); 2~2.3 * 10^9
	.loc 27 52 39 is_stmt 0 view .LVU1125
	movsd	104(%rax), %xmm5	# MEM[(value_type &)_649 + 104], k2
.LVL212:
# FI_Rate.cpp:51:     const double k01 = myVars->FI_RC[12];	//	The rate constant of the S0 to S1 transition	Lazar (1999); 0.667~33.3 * 10^3
	.loc 27 51 40 view .LVU1126
	movsd	%xmm3, 104(%rsp)	# k01, %sfp
# FI_Rate.cpp:53:     const double kAB1 = myVars->FI_RC[14];	//	The rate constant of QAQB-->QAQB-	Lazar (1999); 2.5~5 * 10^3
	.loc 27 53 41 view .LVU1127
	movsd	%xmm6, 328(%rsp)	# kAB1, %sfp
# FI_Rate.cpp:50:     const double k30 = myVars->FI_RC[11];	//	The rate constant of the S3 to S0 transition	Lazar (1999); 0.667~33.3 * 10^3
	.loc 27 50 40 view .LVU1128
	movsd	%xmm7, 96(%rsp)	# k30, %sfp
.LVL213:
	.loc 27 51 5 is_stmt 1 view .LVU1129
	.loc 27 52 5 view .LVU1130
	.loc 27 53 5 view .LVU1131
	.loc 27 54 5 view .LVU1132
# FI_Rate.cpp:54:     const double kBA1 = myVars->FI_RC[15];	//	The rate constant of the QAQB- -->QAQB	Lazar (1999)
	.loc 27 54 41 is_stmt 0 view .LVU1133
	movsd	120(%rax), %xmm7	# MEM[(value_type &)_649 + 120], kBA1
.LVL214:
# FI_Rate.cpp:55:     const double kAB2 = myVars->FI_RC[16];	//	The rate constant of the QAQB- --> QAQB2-	Lazar (1999); 1.25~3.33 * 10^3
	.loc 27 55 41 view .LVU1134
	movsd	128(%rax), %xmm3	# MEM[(value_type &)_649 + 128], kAB2
.LVL215:
# FI_Rate.cpp:56:     const double kBA2 = myVars->FI_RC[17];	//	The rate constant of the QAQB2- --> QAQB- 	Lazar (1999), or same as kAB2 depend on the equilibium constant
	.loc 27 56 41 view .LVU1135
	movsd	136(%rax), %xmm6	# MEM[(value_type &)_649 + 136], kBA2
.LVL216:
# FI_Rate.cpp:54:     const double kBA1 = myVars->FI_RC[15];	//	The rate constant of the QAQB- -->QAQB	Lazar (1999)
	.loc 27 54 41 view .LVU1136
	movsd	%xmm7, 336(%rsp)	# kBA1, %sfp
.LVL217:
	.loc 27 55 5 is_stmt 1 view .LVU1137
# FI_Rate.cpp:57:     const double k3 = myVars->FI_RC[18];	//	The rate constant of the exchange of PQ and QBH2	Lazar (1999),0.12~1 for the fast PQ pool,  or 3~8 for the slow recycling PQ pool
	.loc 27 57 39 is_stmt 0 view .LVU1138
	movsd	144(%rax), %xmm7	# MEM[(value_type &)_649 + 144], k3
.LVL218:
# FI_Rate.cpp:55:     const double kAB2 = myVars->FI_RC[16];	//	The rate constant of the QAQB- --> QAQB2-	Lazar (1999); 1.25~3.33 * 10^3
	.loc 27 55 41 view .LVU1139
	movsd	%xmm3, 344(%rsp)	# kAB2, %sfp
.LVL219:
	.loc 27 56 5 is_stmt 1 view .LVU1140
# FI_Rate.cpp:58:     const double k_r3 = myVars->FI_RC[19];	//	The rate constant of the exchange of QB and PQH2	Lazar (1999), since the equilibrium constant is 1 (205 in Lazar, 1999)
	.loc 27 58 41 is_stmt 0 view .LVU1141
	movsd	152(%rax), %xmm3	# MEM[(value_type &)_649 + 152], k_r3
.LVL220:
# FI_Rate.cpp:56:     const double kBA2 = myVars->FI_RC[17];	//	The rate constant of the QAQB2- --> QAQB- 	Lazar (1999), or same as kAB2 depend on the equilibium constant
	.loc 27 56 41 view .LVU1142
	movsd	%xmm6, 352(%rsp)	# kBA2, %sfp
.LVL221:
	.loc 27 57 5 is_stmt 1 view .LVU1143
# FI_Rate.cpp:59:     const double k_pq_oxy = myVars->FI_RC[20];	//	The rate constant of the PQH2 oxidation	Lazar (1999),50~500
	.loc 27 59 45 is_stmt 0 view .LVU1144
	movsd	160(%rax), %xmm6	# MEM[(value_type &)_649 + 160], k_pq_oxy
.LVL222:
# FI_Rate.cpp:62:     const double A = myVars->FI_Con[0];	// 	The concentration of excitons in the peripheral antenna
	.loc 27 62 38 view .LVU1145
	movq	3040(%rdi), %rax	# MEM[(double * *)myVars_278(D) + 3040B], _650
.LVL223:
# FI_Rate.cpp:57:     const double k3 = myVars->FI_RC[18];	//	The rate constant of the exchange of PQ and QBH2	Lazar (1999),0.12~1 for the fast PQ pool,  or 3~8 for the slow recycling PQ pool
	.loc 27 57 39 view .LVU1146
	movsd	%xmm7, 360(%rsp)	# k3, %sfp
.LVL224:
	.loc 27 58 5 is_stmt 1 view .LVU1147
# FI_Rate.cpp:59:     const double k_pq_oxy = myVars->FI_RC[20];	//	The rate constant of the PQH2 oxidation	Lazar (1999),50~500
	.loc 27 59 45 is_stmt 0 view .LVU1148
	movsd	%xmm6, 376(%rsp)	# k_pq_oxy, %sfp
# FI_Rate.cpp:67:     const double P680Pheon = myVars->FI_Con[5];	//	The concentration of P680Pheo-
	.loc 27 67 46 view .LVU1149
	movsd	40(%rax), %xmm6	# MEM[(value_type &)_650 + 40], P680Pheon
# FI_Rate.cpp:62:     const double A = myVars->FI_Con[0];	// 	The concentration of excitons in the peripheral antenna
	.loc 27 62 38 view .LVU1150
	movsd	(%rax), %xmm15	# MEM[(value_type &)_650], A
# FI_Rate.cpp:63:     const double U = myVars->FI_Con[1];	//	The concentration fo excitons in the core antenna
	.loc 27 63 38 view .LVU1151
	movsd	8(%rax), %xmm10	# MEM[(value_type &)_650 + 8], U
# FI_Rate.cpp:64:     const double P680ePheo = myVars->FI_Con[2];          //QF add
	.loc 27 64 46 view .LVU1152
	movsd	16(%rax), %xmm0	# MEM[(value_type &)_650 + 16], P680ePheo
.LVL225:
# FI_Rate.cpp:58:     const double k_r3 = myVars->FI_RC[19];	//	The rate constant of the exchange of QB and PQH2	Lazar (1999), since the equilibrium constant is 1 (205 in Lazar, 1999)
	.loc 27 58 41 view .LVU1153
	movsd	%xmm3, 160(%rsp)	# k_r3, %sfp
.LVL226:
	.loc 27 59 5 is_stmt 1 view .LVU1154
	.loc 27 62 5 view .LVU1155
	.loc 27 63 5 view .LVU1156
	.loc 27 64 5 view .LVU1157
	.loc 27 65 5 view .LVU1158
# FI_Rate.cpp:67:     const double P680Pheon = myVars->FI_Con[5];	//	The concentration of P680Pheo-
	.loc 27 67 46 is_stmt 0 view .LVU1159
	movsd	%xmm6, 168(%rsp)	# P680Pheon, %sfp
# FI_Rate.cpp:69:     const double S1T = myVars->FI_Con[7];	// 	The concentration of S1 in combination with reduced tyrosine
	.loc 27 69 40 view .LVU1160
	movsd	56(%rax), %xmm6	# MEM[(value_type &)_650 + 56], S1T
# FI_Rate.cpp:65:     const double P680pPheon = myVars->FI_Con[3];	//	The concentration for the P680+ Pheo-
	.loc 27 65 47 view .LVU1161
	movsd	24(%rax), %xmm7	# MEM[(value_type &)_650 + 24], P680pPheon
.LVL227:
	.loc 27 66 5 is_stmt 1 view .LVU1162
# FI_Rate.cpp:66:     const double P680pPheo = myVars->FI_Con[4];	// 	The concentration of P680+ Pheo
	.loc 27 66 46 is_stmt 0 view .LVU1163
	movsd	32(%rax), %xmm3	# MEM[(value_type &)_650 + 32], P680pPheo
.LVL228:
	.loc 27 67 5 is_stmt 1 view .LVU1164
	.loc 27 69 5 view .LVU1165
# FI_Rate.cpp:69:     const double S1T = myVars->FI_Con[7];	// 	The concentration of S1 in combination with reduced tyrosine
	.loc 27 69 40 is_stmt 0 view .LVU1166
	movsd	%xmm6, 264(%rsp)	# S1T, %sfp
.LVL229:
	.loc 27 70 5 is_stmt 1 view .LVU1167
# FI_Rate.cpp:70:     const double S2T = myVars->FI_Con[8];	//	The concentration of S2 in combination with reduced tyrosine
	.loc 27 70 40 is_stmt 0 view .LVU1168
	movsd	64(%rax), %xmm6	# MEM[(value_type &)_650 + 64], S2T
.LVL230:
	.loc 27 70 40 view .LVU1169
	movsd	%xmm6, 272(%rsp)	# S2T, %sfp
.LVL231:
	.loc 27 71 5 is_stmt 1 view .LVU1170
# FI_Rate.cpp:71:     const double S3T = myVars->FI_Con[9];	// 	The concentration of S3 in combination with reduced tyrosine
	.loc 27 71 40 is_stmt 0 view .LVU1171
	movsd	72(%rax), %xmm6	# MEM[(value_type &)_650 + 72], S3T
.LVL232:
	.loc 27 71 40 view .LVU1172
	movsd	%xmm6, 280(%rsp)	# S3T, %sfp
.LVL233:
	.loc 27 72 5 is_stmt 1 view .LVU1173
# FI_Rate.cpp:72:     const double S0T = myVars->FI_Con[10];	//	The concentration of S0 in combination with reduced tyrosine
	.loc 27 72 41 is_stmt 0 view .LVU1174
	movsd	80(%rax), %xmm6	# MEM[(value_type &)_650 + 80], S0T
.LVL234:
	.loc 27 72 41 view .LVU1175
	movsd	%xmm6, 288(%rsp)	# S0T, %sfp
.LVL235:
	.loc 27 73 5 is_stmt 1 view .LVU1176
# FI_Rate.cpp:73:     const double S1Tp = myVars->FI_Con[11];	// 	The concentration of S1 in combination with oxidized tyrosine
	.loc 27 73 42 is_stmt 0 view .LVU1177
	movsd	88(%rax), %xmm6	# MEM[(value_type &)_650 + 88], S1Tp
.LVL236:
	.loc 27 73 42 view .LVU1178
	movsd	%xmm6, 232(%rsp)	# S1Tp, %sfp
.LVL237:
	.loc 27 74 5 is_stmt 1 view .LVU1179
# FI_Rate.cpp:74:     const double S2Tp = myVars->FI_Con[12];	// 	The concentration of S2 in combination with oxidized tyrosine
	.loc 27 74 42 is_stmt 0 view .LVU1180
	movsd	96(%rax), %xmm6	# MEM[(value_type &)_650 + 96], S2Tp
.LVL238:
	.loc 27 74 42 view .LVU1181
	movsd	%xmm6, 240(%rsp)	# S2Tp, %sfp
.LVL239:
	.loc 27 75 5 is_stmt 1 view .LVU1182
# FI_Rate.cpp:75:     const double S3Tp = myVars->FI_Con[13];	//	The concentration of S3 in combination with oxidized tyrosine
	.loc 27 75 42 is_stmt 0 view .LVU1183
	movsd	104(%rax), %xmm6	# MEM[(value_type &)_650 + 104], S3Tp
.LVL240:
# FI_Rate.cpp:82:     const double QAnQB2n = myVars->FI_Con[20];	// 	The concentration of [QA-QB2-];
	.loc 27 82 45 view .LVU1184
	movsd	160(%rax), %xmm2	# MEM[(value_type &)_650 + 160], QAnQB2n
# FI_Rate.cpp:92:     if (myVars->BF_FI_com)
	.loc 27 92 5 view .LVU1185
	cmpb	$0, (%rdi)	#, myVars_278(D)->BF_FI_com
# FI_Rate.cpp:75:     const double S3Tp = myVars->FI_Con[13];	//	The concentration of S3 in combination with oxidized tyrosine
	.loc 27 75 42 view .LVU1186
	movsd	%xmm6, 248(%rsp)	# S3Tp, %sfp
.LVL241:
	.loc 27 76 5 is_stmt 1 view .LVU1187
# FI_Rate.cpp:76:     const double S0Tp = myVars->FI_Con[14];	// 	The concentration of S0 in combination with oxidized tyrosine
	.loc 27 76 42 is_stmt 0 view .LVU1188
	movsd	112(%rax), %xmm6	# MEM[(value_type &)_650 + 112], S0Tp
.LVL242:
# FI_Rate.cpp:82:     const double QAnQB2n = myVars->FI_Con[20];	// 	The concentration of [QA-QB2-];
	.loc 27 82 45 view .LVU1189
	movsd	%xmm2, 40(%rsp)	# QAnQB2n, %sfp
# FI_Rate.cpp:83:     const double PQn = myVars->FI_Con[21];	//	The concentration of reduced PQ, i.e. PQH2;
	.loc 27 83 41 view .LVU1190
	movsd	168(%rax), %xmm2	# MEM[(value_type &)_650 + 168], PQn
# FI_Rate.cpp:76:     const double S0Tp = myVars->FI_Con[14];	// 	The concentration of S0 in combination with oxidized tyrosine
	.loc 27 76 42 view .LVU1191
	movsd	%xmm6, 256(%rsp)	# S0Tp, %sfp
.LVL243:
	.loc 27 77 5 is_stmt 1 view .LVU1192
# FI_Rate.cpp:77:     const double QAQB = myVars->FI_Con[15];	// 	The concentration of [QAQB]
	.loc 27 77 42 is_stmt 0 view .LVU1193
	movsd	120(%rax), %xmm6	# MEM[(value_type &)_650 + 120], QAQB
.LVL244:
# FI_Rate.cpp:83:     const double PQn = myVars->FI_Con[21];	//	The concentration of reduced PQ, i.e. PQH2;
	.loc 27 83 41 view .LVU1194
	movsd	%xmm2, 384(%rsp)	# PQn, %sfp
# FI_Rate.cpp:77:     const double QAQB = myVars->FI_Con[15];	// 	The concentration of [QAQB]
	.loc 27 77 42 view .LVU1195
	movsd	%xmm6, 176(%rsp)	# QAQB, %sfp
.LVL245:
	.loc 27 78 5 is_stmt 1 view .LVU1196
# FI_Rate.cpp:78:     const double QAnQB = myVars->FI_Con[16];	// 	The concentration of [QA-QB];
	.loc 27 78 43 is_stmt 0 view .LVU1197
	movsd	128(%rax), %xmm6	# MEM[(value_type &)_650 + 128], QAnQB
.LVL246:
	.loc 27 78 43 view .LVU1198
	movsd	%xmm6, 8(%rsp)	# QAnQB, %sfp
.LVL247:
	.loc 27 79 5 is_stmt 1 view .LVU1199
# FI_Rate.cpp:79:     const double QAQBn = myVars->FI_Con[17];	//	The concentration of [QAQB-]
	.loc 27 79 43 is_stmt 0 view .LVU1200
	movsd	136(%rax), %xmm6	# MEM[(value_type &)_650 + 136], QAQBn
.LVL248:
	.loc 27 79 43 view .LVU1201
	movsd	%xmm6, 184(%rsp)	# QAQBn, %sfp
.LVL249:
	.loc 27 80 5 is_stmt 1 view .LVU1202
# FI_Rate.cpp:80:     const double QAnQBn = myVars->FI_Con[18];	// 	The concentration of [QA-QB-];
	.loc 27 80 44 is_stmt 0 view .LVU1203
	movsd	144(%rax), %xmm6	# MEM[(value_type &)_650 + 144], QAnQBn
.LVL250:
	.loc 27 80 44 view .LVU1204
	movsd	%xmm6, 32(%rsp)	# QAnQBn, %sfp
.LVL251:
	.loc 27 81 5 is_stmt 1 view .LVU1205
# FI_Rate.cpp:81:     const double QAQB2n = myVars->FI_Con[19];	//	The concentration of [QAQB2-]
	.loc 27 81 44 is_stmt 0 view .LVU1206
	movsd	152(%rax), %xmm6	# MEM[(value_type &)_650 + 152], QAQB2n
.LVL252:
	.loc 27 82 5 is_stmt 1 view .LVU1207
	.loc 27 83 5 view .LVU1208
	.loc 27 86 5 view .LVU1209
# FI_Rate.cpp:86:     const double PQT = myVars->FI_Pool[1];  // The total concentraion of PQH2 and PQ;
	.loc 27 86 41 is_stmt 0 view .LVU1210
	movq	3064(%rdi), %rax	# MEM[(double * *)myVars_278(D) + 3064B], MEM[(double * *)myVars_278(D) + 3064B]
.LVL253:
	.loc 27 86 41 view .LVU1211
	movsd	8(%rax), %xmm9	# MEM[(value_type &)_651 + 8], PQT
.LVL254:
	.loc 27 88 5 is_stmt 1 view .LVU1212
# FI_Rate.cpp:88:     const double PQa = myVars->FIBF_AUX[1];
	.loc 27 88 42 is_stmt 0 view .LVU1213
	movq	2944(%rdi), %rax	# MEM[(double * *)myVars_278(D) + 2944B], MEM[(double * *)myVars_278(D) + 2944B]
	movsd	8(%rax), %xmm1	# MEM[(value_type &)_652 + 8], PQa
.LVL255:
	.loc 27 89 5 is_stmt 1 view .LVU1214
	.loc 27 92 5 view .LVU1215
	jne	.L121	#,
# FI_Rate.cpp:89:     double PQ = PQT - PQn - PQa;
	.loc 27 89 21 is_stmt 0 view .LVU1216
	movapd	%xmm9, %xmm8	# PQT, tmp767
	subsd	%xmm2, %xmm8	# PQn, tmp767
.LVL256:
# FI_Rate.cpp:89:     double PQ = PQT - PQn - PQa;
	.loc 27 89 12 view .LVU1217
	subsd	%xmm1, %xmm8	# PQa, tmp767
.LVL257:
	.loc 27 89 12 view .LVU1218
	movsd	%xmm8, 392(%rsp)	# tmp767, %sfp
.LVL258:
.L122:
	.loc 27 98 5 is_stmt 1 view .LVU1219
	.loc 27 107 5 view .LVU1220
	.loc 27 112 5 view .LVU1221
# FI_Rate.cpp:107:     const double P680Pheo = P680PheoT - P680pPheo - P680Pheon - P680pPheon - P680ePheo;//QF add  '- P680ePheo'
	.loc 27 107 39 is_stmt 0 view .LVU1222
	movsd	.LC23(%rip), %xmm1	#, tmp769
.LVL259:
# FI_Rate.cpp:112:     const double It = myVars->FI_Param[0];	//	It	The total incident light intensity
	.loc 27 112 41 view .LVU1223
	movq	3112(%rbx), %rax	# MEM[(double * *)myVars_278(D) + 3112B], MEM[(double * *)myVars_278(D) + 3112B]
.LVL260:
# FI_Rate.cpp:115:     const double Ic = It * myVars->ChlT / (myVars->ChlT2 + myVars->ChlPSI);//	Ic	The incident light on the core antenna; myVars->ChlT is defined in upper lines as the total amount of Chl in one U.
	.loc 27 115 58 view .LVU1224
	movsd	288(%rbx), %xmm13	# myVars_278(D)->ChlPSI, _10
# FI_Rate.cpp:115:     const double Ic = It * myVars->ChlT / (myVars->ChlT2 + myVars->ChlPSI);//	Ic	The incident light on the core antenna; myVars->ChlT is defined in upper lines as the total amount of Chl in one U.
	.loc 27 115 26 view .LVU1225
	movsd	296(%rbx), %xmm11	# myVars_278(D)->ChlT, tmp773
# FI_Rate.cpp:107:     const double P680Pheo = P680PheoT - P680pPheo - P680Pheon - P680pPheon - P680ePheo;//QF add  '- P680ePheo'
	.loc 27 107 39 view .LVU1226
	movapd	%xmm1, %xmm8	# tmp769, tmp768
# FI_Rate.cpp:112:     const double It = myVars->FI_Param[0];	//	It	The total incident light intensity
	.loc 27 112 41 view .LVU1227
	movsd	(%rax), %xmm14	# MEM[(value_type &)_653], It
.LVL261:
	.loc 27 115 5 is_stmt 1 view .LVU1228
	.loc 27 117 5 view .LVU1229
# FI_Rate.cpp:107:     const double P680Pheo = P680PheoT - P680pPheo - P680Pheon - P680pPheon - P680ePheo;//QF add  '- P680ePheo'
	.loc 27 107 39 is_stmt 0 view .LVU1230
	subsd	%xmm3, %xmm8	# P680pPheo, tmp768
# FI_Rate.cpp:107:     const double P680Pheo = P680PheoT - P680pPheo - P680Pheon - P680pPheon - P680ePheo;//QF add  '- P680ePheo'
	.loc 27 107 51 view .LVU1231
	subsd	168(%rsp), %xmm8	# %sfp, tmp770
# FI_Rate.cpp:115:     const double Ic = It * myVars->ChlT / (myVars->ChlT2 + myVars->ChlPSI);//	Ic	The incident light on the core antenna; myVars->ChlT is defined in upper lines as the total amount of Chl in one U.
	.loc 27 115 26 view .LVU1232
	mulsd	%xmm14, %xmm11	# It, tmp773
# FI_Rate.cpp:107:     const double P680Pheo = P680PheoT - P680pPheo - P680Pheon - P680pPheon - P680ePheo;//QF add  '- P680ePheo'
	.loc 27 107 63 view .LVU1233
	subsd	%xmm7, %xmm8	# P680pPheon, tmp771
# FI_Rate.cpp:107:     const double P680Pheo = P680PheoT - P680pPheo - P680Pheon - P680pPheon - P680ePheo;//QF add  '- P680ePheo'
	.loc 27 107 18 view .LVU1234
	subsd	%xmm0, %xmm8	# P680ePheo, tmp771
	movsd	%xmm8, 448(%rsp)	# tmp771, %sfp
.LVL262:
# FI_Rate.cpp:115:     const double Ic = It * myVars->ChlT / (myVars->ChlT2 + myVars->ChlPSI);//	Ic	The incident light on the core antenna; myVars->ChlT is defined in upper lines as the total amount of Chl in one U.
	.loc 27 115 52 view .LVU1235
	movsd	304(%rbx), %xmm8	# myVars_278(D)->ChlT2, _8
# FI_Rate.cpp:115:     const double Ic = It * myVars->ChlT / (myVars->ChlT2 + myVars->ChlPSI);//	Ic	The incident light on the core antenna; myVars->ChlT is defined in upper lines as the total amount of Chl in one U.
	.loc 27 115 58 view .LVU1236
	addsd	%xmm8, %xmm13	# _8, _10
# FI_Rate.cpp:117:     const double Ia = It * (myVars->ChlT2 - myVars->ChlT) / (myVars->ChlT2 + myVars->ChlPSI);//	Ia	The incident light on the peripheral antenna
	.loc 27 117 43 view .LVU1237
	subsd	296(%rbx), %xmm8	# myVars_278(D)->ChlT, tmp774
# FI_Rate.cpp:117:     const double Ia = It * (myVars->ChlT2 - myVars->ChlT) / (myVars->ChlT2 + myVars->ChlPSI);//	Ia	The incident light on the peripheral antenna
	.loc 27 117 26 view .LVU1238
	mulsd	%xmm14, %xmm8	# It, tmp775
# FI_Rate.cpp:129:     const double vA_f = A * kA_f;//	vA_f	The rate of fluorescence emission from peripheral antenna
	.loc 27 129 18 view .LVU1239
	movsd	144(%rsp), %xmm14	# %sfp, vA_f
.LVL263:
# FI_Rate.cpp:115:     const double Ic = It * myVars->ChlT / (myVars->ChlT2 + myVars->ChlPSI);//	Ic	The incident light on the core antenna; myVars->ChlT is defined in upper lines as the total amount of Chl in one U.
	.loc 27 115 18 view .LVU1240
	divsd	%xmm13, %xmm11	# _10, tmp773
# FI_Rate.cpp:129:     const double vA_f = A * kA_f;//	vA_f	The rate of fluorescence emission from peripheral antenna
	.loc 27 129 18 view .LVU1241
	mulsd	%xmm15, %xmm14	# A, vA_f
	movsd	%xmm14, 200(%rsp)	# vA_f, %sfp
# FI_Rate.cpp:132:     const double vU_f = U * kU_f;//	vU_f	The rate of fluorescence emission from core antenna
	.loc 27 132 18 view .LVU1242
	movsd	152(%rsp), %xmm14	# %sfp, vU_f
	mulsd	%xmm10, %xmm14	# U, vU_f
	movsd	%xmm14, 64(%rsp)	# vU_f, %sfp
# FI_Rate.cpp:133:     const double vU_d = U * kU_d * (1 - q);//	vU_d	The rate of heat dissipation from core antenna
	.loc 27 133 27 view .LVU1243
	movsd	24(%rsp), %xmm14	# %sfp, kU_d
# FI_Rate.cpp:117:     const double Ia = It * (myVars->ChlT2 - myVars->ChlT) / (myVars->ChlT2 + myVars->ChlPSI);//	Ia	The incident light on the peripheral antenna
	.loc 27 117 18 view .LVU1244
	divsd	%xmm13, %xmm8	# _10, tmp775
# FI_Rate.cpp:115:     const double Ic = It * myVars->ChlT / (myVars->ChlT2 + myVars->ChlPSI);//	Ic	The incident light on the core antenna; myVars->ChlT is defined in upper lines as the total amount of Chl in one U.
	.loc 27 115 18 view .LVU1245
	movsd	%xmm11, 112(%rsp)	# tmp773, %sfp
.LVL264:
# FI_Rate.cpp:126:     const double q = (QAQB + QAQBn + QAQB2n) / (QAQB + QAQBn + QAQB2n + QAnQB + QAnQBn + QAnQB2n);
	.loc 27 126 71 view .LVU1246
	movsd	8(%rsp), %xmm11	# %sfp, tmp777
# FI_Rate.cpp:117:     const double Ia = It * (myVars->ChlT2 - myVars->ChlT) / (myVars->ChlT2 + myVars->ChlPSI);//	Ia	The incident light on the peripheral antenna
	.loc 27 117 18 view .LVU1247
	movsd	%xmm8, 368(%rsp)	# tmp775, %sfp
.LVL265:
	.loc 27 126 5 is_stmt 1 view .LVU1248
# FI_Rate.cpp:126:     const double q = (QAQB + QAQBn + QAQB2n) / (QAQB + QAQBn + QAQB2n + QAnQB + QAnQBn + QAnQB2n);
	.loc 27 126 28 is_stmt 0 view .LVU1249
	movsd	176(%rsp), %xmm8	# %sfp, tmp776
.LVL266:
	.loc 27 126 28 view .LVU1250
	addsd	184(%rsp), %xmm8	# %sfp, tmp776
# FI_Rate.cpp:126:     const double q = (QAQB + QAQBn + QAQB2n) / (QAQB + QAQBn + QAQB2n + QAnQB + QAnQBn + QAnQB2n);
	.loc 27 126 36 view .LVU1251
	addsd	%xmm6, %xmm8	# QAQB2n, _14
# FI_Rate.cpp:126:     const double q = (QAQB + QAQBn + QAQB2n) / (QAQB + QAQBn + QAQB2n + QAnQB + QAnQBn + QAnQB2n);
	.loc 27 126 71 view .LVU1252
	addsd	%xmm8, %xmm11	# _14, tmp777
# FI_Rate.cpp:126:     const double q = (QAQB + QAQBn + QAQB2n) / (QAQB + QAQBn + QAQB2n + QAnQB + QAnQBn + QAnQB2n);
	.loc 27 126 79 view .LVU1253
	addsd	32(%rsp), %xmm11	# %sfp, tmp778
# FI_Rate.cpp:126:     const double q = (QAQB + QAQBn + QAQB2n) / (QAQB + QAQBn + QAQB2n + QAnQB + QAnQBn + QAnQB2n);
	.loc 27 126 18 view .LVU1254
	movapd	%xmm8, %xmm13	# _14, q
# FI_Rate.cpp:126:     const double q = (QAQB + QAQBn + QAQB2n) / (QAQB + QAQBn + QAQB2n + QAnQB + QAnQBn + QAnQB2n);
	.loc 27 126 88 view .LVU1255
	addsd	40(%rsp), %xmm11	# %sfp, tmp779
# FI_Rate.cpp:126:     const double q = (QAQB + QAQBn + QAQB2n) / (QAQB + QAQBn + QAQB2n + QAnQB + QAnQBn + QAnQB2n);
	.loc 27 126 18 view .LVU1256
	divsd	%xmm11, %xmm13	# tmp779, q
	movapd	%xmm13, %xmm11	# q, q
.LVL267:
	.loc 27 128 5 is_stmt 1 view .LVU1257
# FI_Rate.cpp:128:     const double vA_d = A * kA_d;//	vA_d	The rate of heat dissipation from peripheral antenna
	.loc 27 128 18 is_stmt 0 view .LVU1258
	movsd	136(%rsp), %xmm13	# %sfp, vA_d
# FI_Rate.cpp:133:     const double vU_d = U * kU_d * (1 - q);//	vU_d	The rate of heat dissipation from core antenna
	.loc 27 133 39 view .LVU1259
	subsd	%xmm11, %xmm1	# q, _19
# FI_Rate.cpp:128:     const double vA_d = A * kA_d;//	vA_d	The rate of heat dissipation from peripheral antenna
	.loc 27 128 18 view .LVU1260
	mulsd	%xmm15, %xmm13	# A, vA_d
	movsd	%xmm13, 192(%rsp)	# vA_d, %sfp
.LVL268:
	.loc 27 129 5 is_stmt 1 view .LVU1261
	.loc 27 130 5 view .LVU1262
	.loc 27 131 5 view .LVU1263
	.loc 27 132 5 view .LVU1264
	.loc 27 133 5 view .LVU1265
# FI_Rate.cpp:130:     const double vA_U = A * kA_U;//	vA_U	The rate of exciton transfer from peripheral antenna to core antenna in open reaction center
	.loc 27 130 18 is_stmt 0 view .LVU1266
	movsd	16(%rsp), %xmm13	# %sfp, kA_U
.LVL269:
	.loc 27 130 18 view .LVU1267
	mulsd	%xmm15, %xmm13	# A, kA_U
	movsd	%xmm13, 48(%rsp)	# kA_U, %sfp
.LVL270:
# FI_Rate.cpp:131:     const double vU_A = U * kU_A;//	vU_A	The rate of exciton transfer from core antenna to perpheral antenna in open center
	.loc 27 131 18 view .LVU1268
	movsd	56(%rsp), %xmm13	# %sfp, kU_A
	mulsd	%xmm10, %xmm13	# U, kU_A
	movsd	%xmm13, 56(%rsp)	# kU_A, %sfp
.LVL271:
# FI_Rate.cpp:133:     const double vU_d = U * kU_d * (1 - q);//	vU_d	The rate of heat dissipation from core antenna
	.loc 27 133 27 view .LVU1269
	movapd	%xmm14, %xmm13	# kU_d, tmp781
	mulsd	%xmm10, %xmm13	# U, tmp781
# FI_Rate.cpp:133:     const double vU_d = U * kU_d * (1 - q);//	vU_d	The rate of heat dissipation from core antenna
	.loc 27 133 18 view .LVU1270
	mulsd	%xmm1, %xmm13	# _19, tmp781
	movsd	%xmm13, 208(%rsp)	# vU_d, %sfp
	movapd	%xmm13, %xmm2	# tmp781, vU_d
.LVL272:
	.loc 27 135 5 is_stmt 1 view .LVU1271
	.loc 27 138 5 view .LVU1272
# FI_Rate.cpp:138:     const double vU_P680 = Ic + vA_U - vU_A - vU_f - vU_d;//QF add  , total energy coming to P680 and == the rate of P680 -> P680*, except f and d, energy is transport to P680 reaction center
	.loc 27 138 31 is_stmt 0 view .LVU1273
	movsd	112(%rsp), %xmm13	# %sfp, tmp782
	addsd	48(%rsp), %xmm13	# %sfp, tmp782
# FI_Rate.cpp:138:     const double vU_P680 = Ic + vA_U - vU_A - vU_f - vU_d;//QF add  , total energy coming to P680 and == the rate of P680 -> P680*, except f and d, energy is transport to P680 reaction center
	.loc 27 138 38 view .LVU1274
	subsd	56(%rsp), %xmm13	# %sfp, tmp783
# FI_Rate.cpp:138:     const double vU_P680 = Ic + vA_U - vU_A - vU_f - vU_d;//QF add  , total energy coming to P680 and == the rate of P680 -> P680*, except f and d, energy is transport to P680 reaction center
	.loc 27 138 45 view .LVU1275
	subsd	64(%rsp), %xmm13	# %sfp, tmp784
# FI_Rate.cpp:138:     const double vU_P680 = Ic + vA_U - vU_A - vU_f - vU_d;//QF add  , total energy coming to P680 and == the rate of P680 -> P680*, except f and d, energy is transport to P680 reaction center
	.loc 27 138 18 view .LVU1276
	subsd	%xmm2, %xmm13	# vU_d, tmp784
	movsd	%xmm13, 120(%rsp)	# tmp784, %sfp
.LVL273:
	.loc 27 139 5 is_stmt 1 view .LVU1277
# FI_Rate.cpp:139:     const double vP680_d = P680ePheo * kU_d * (1 - q);
	.loc 27 139 38 is_stmt 0 view .LVU1278
	movapd	%xmm14, %xmm13	# kU_d, tmp785
.LVL274:
	.loc 27 139 38 view .LVU1279
	mulsd	%xmm0, %xmm13	# P680ePheo, tmp785
# FI_Rate.cpp:139:     const double vP680_d = P680ePheo * kU_d * (1 - q);
	.loc 27 139 18 view .LVU1280
	mulsd	%xmm1, %xmm13	# _19, tmp785
	movsd	%xmm13, 480(%rsp)	# vP680_d, %sfp
	movapd	%xmm13, %xmm2	# tmp785, vP680_d
.LVL275:
	.loc 27 140 5 is_stmt 1 view .LVU1281
# FI_Rate.cpp:140:     const double v1 = P680ePheo * k1 * q + P680ePheo * P * (1 - q) * k1 / 6.2 + P680ePheo * (1 - P) * (1 - q) * k1;//	v1	The rate of primary charge separation
	.loc 27 140 58 is_stmt 0 view .LVU1282
	movapd	%xmm1, %xmm13	# _19, tmp786
	mulsd	%xmm0, %xmm13	# P680ePheo, tmp786
	movapd	%xmm13, %xmm14	# tmp786, tmp786
# FI_Rate.cpp:140:     const double v1 = P680ePheo * k1 * q + P680ePheo * P * (1 - q) * k1 / 6.2 + P680ePheo * (1 - P) * (1 - q) * k1;//	v1	The rate of primary charge separation
	.loc 27 140 33 view .LVU1283
	movapd	%xmm12, %xmm13	# k1, tmp790
	mulsd	%xmm0, %xmm13	# P680ePheo, tmp790
# FI_Rate.cpp:140:     const double v1 = P680ePheo * k1 * q + P680ePheo * P * (1 - q) * k1 / 6.2 + P680ePheo * (1 - P) * (1 - q) * k1;//	v1	The rate of primary charge separation
	.loc 27 140 91 view .LVU1284
	mulsd	.LC13(%rip), %xmm0	#, tmp793
.LVL276:
# FI_Rate.cpp:140:     const double v1 = P680ePheo * k1 * q + P680ePheo * P * (1 - q) * k1 / 6.2 + P680ePheo * (1 - P) * (1 - q) * k1;//	v1	The rate of primary charge separation
	.loc 27 140 68 view .LVU1285
	mulsd	%xmm12, %xmm14	# k1, tmp787
# FI_Rate.cpp:140:     const double v1 = P680ePheo * k1 * q + P680ePheo * P * (1 - q) * k1 / 6.2 + P680ePheo * (1 - P) * (1 - q) * k1;//	v1	The rate of primary charge separation
	.loc 27 140 73 view .LVU1286
	divsd	.LC24(%rip), %xmm14	#, tmp788
# FI_Rate.cpp:140:     const double v1 = P680ePheo * k1 * q + P680ePheo * P * (1 - q) * k1 / 6.2 + P680ePheo * (1 - P) * (1 - q) * k1;//	v1	The rate of primary charge separation
	.loc 27 140 38 view .LVU1287
	mulsd	%xmm11, %xmm13	# q, tmp791
# FI_Rate.cpp:140:     const double v1 = P680ePheo * k1 * q + P680ePheo * P * (1 - q) * k1 / 6.2 + P680ePheo * (1 - P) * (1 - q) * k1;//	v1	The rate of primary charge separation
	.loc 27 140 101 view .LVU1288
	mulsd	%xmm1, %xmm0	# _19, tmp795
# FI_Rate.cpp:141:     const double v_r1 = P680pPheon * k_r1 * q + P680pPheon * (1 - q) * k_r1 * 3;//	v_r1	The rate of charge recombination
	.loc 27 141 60 view .LVU1289
	mulsd	%xmm7, %xmm1	# P680pPheon, tmp797
# FI_Rate.cpp:140:     const double v1 = P680ePheo * k1 * q + P680ePheo * P * (1 - q) * k1 / 6.2 + P680ePheo * (1 - P) * (1 - q) * k1;//	v1	The rate of primary charge separation
	.loc 27 140 42 view .LVU1290
	addsd	%xmm14, %xmm13	# tmp788, tmp792
# FI_Rate.cpp:140:     const double v1 = P680ePheo * k1 * q + P680ePheo * P * (1 - q) * k1 / 6.2 + P680ePheo * (1 - P) * (1 - q) * k1;//	v1	The rate of primary charge separation
	.loc 27 140 111 view .LVU1291
	mulsd	%xmm12, %xmm0	# k1, tmp796
# FI_Rate.cpp:140:     const double v1 = P680ePheo * k1 * q + P680ePheo * P * (1 - q) * k1 / 6.2 + P680ePheo * (1 - P) * (1 - q) * k1;//	v1	The rate of primary charge separation
	.loc 27 140 18 view .LVU1292
	movapd	%xmm13, %xmm12	# tmp792, tmp792
.LVL277:
# FI_Rate.cpp:142:     const double vP680_f = vU_P680 - (v1 - v_r1) - vP680_d;
	.loc 27 142 36 view .LVU1293
	movsd	120(%rsp), %xmm13	# %sfp, tmp804
# FI_Rate.cpp:140:     const double v1 = P680ePheo * k1 * q + P680ePheo * P * (1 - q) * k1 / 6.2 + P680ePheo * (1 - P) * (1 - q) * k1;//	v1	The rate of primary charge separation
	.loc 27 140 18 view .LVU1294
	addsd	%xmm0, %xmm12	# tmp796, tmp792
# FI_Rate.cpp:141:     const double v_r1 = P680pPheon * k_r1 * q + P680pPheon * (1 - q) * k_r1 * 3;//	v_r1	The rate of charge recombination
	.loc 27 141 70 view .LVU1295
	movsd	72(%rsp), %xmm0	# %sfp, k_r1
	mulsd	%xmm0, %xmm1	# k_r1, tmp798
# FI_Rate.cpp:140:     const double v1 = P680ePheo * k1 * q + P680ePheo * P * (1 - q) * k1 / 6.2 + P680ePheo * (1 - P) * (1 - q) * k1;//	v1	The rate of primary charge separation
	.loc 27 140 18 view .LVU1296
	movsd	%xmm12, 216(%rsp)	# v1, %sfp
.LVL278:
	.loc 27 141 5 is_stmt 1 view .LVU1297
# FI_Rate.cpp:141:     const double v_r1 = P680pPheon * k_r1 * q + P680pPheon * (1 - q) * k_r1 * 3;//	v_r1	The rate of charge recombination
	.loc 27 141 36 is_stmt 0 view .LVU1298
	mulsd	%xmm7, %xmm0	# P680pPheon, k_r1
# FI_Rate.cpp:141:     const double v_r1 = P680pPheon * k_r1 * q + P680pPheon * (1 - q) * k_r1 * 3;//	v_r1	The rate of charge recombination
	.loc 27 141 77 view .LVU1299
	mulsd	.LC25(%rip), %xmm1	#, tmp799
# FI_Rate.cpp:141:     const double v_r1 = P680pPheon * k_r1 * q + P680pPheon * (1 - q) * k_r1 * 3;//	v_r1	The rate of charge recombination
	.loc 27 141 43 view .LVU1300
	mulsd	%xmm11, %xmm0	# q, tmp802
# FI_Rate.cpp:141:     const double v_r1 = P680pPheon * k_r1 * q + P680pPheon * (1 - q) * k_r1 * 3;//	v_r1	The rate of charge recombination
	.loc 27 141 18 view .LVU1301
	addsd	%xmm0, %xmm1	# tmp802, tmp799
	movsd	%xmm1, 224(%rsp)	# v_r1, %sfp
.LVL279:
	.loc 27 142 5 is_stmt 1 view .LVU1302
# FI_Rate.cpp:142:     const double vP680_f = vU_P680 - (v1 - v_r1) - vP680_d;
	.loc 27 142 42 is_stmt 0 view .LVU1303
	subsd	%xmm1, %xmm12	# v_r1, tmp803
.LVL280:
# FI_Rate.cpp:144:     const double vS1_S2 = S1Tp * k12;//	vS1_S2	The rate of transition from S1 to S2
	.loc 27 144 18 view .LVU1304
	movsd	80(%rsp), %xmm1	# %sfp, k12
.LVL281:
	.loc 27 144 18 view .LVU1305
	mulsd	232(%rsp), %xmm1	# %sfp, k12
# FI_Rate.cpp:142:     const double vP680_f = vU_P680 - (v1 - v_r1) - vP680_d;
	.loc 27 142 36 view .LVU1306
	subsd	%xmm12, %xmm13	# tmp803, tmp804
# FI_Rate.cpp:144:     const double vS1_S2 = S1Tp * k12;//	vS1_S2	The rate of transition from S1 to S2
	.loc 27 144 18 view .LVU1307
	movsd	%xmm1, 232(%rsp)	# k12, %sfp
# FI_Rate.cpp:145:     const double vS2_S3 = S2Tp * k23;//	vS2_S3	The rate of transition from S2 to S3
	.loc 27 145 18 view .LVU1308
	movsd	88(%rsp), %xmm1	# %sfp, k23
	mulsd	240(%rsp), %xmm1	# %sfp, k23
# FI_Rate.cpp:142:     const double vP680_f = vU_P680 - (v1 - v_r1) - vP680_d;
	.loc 27 142 18 view .LVU1309
	movapd	%xmm13, %xmm12	# tmp804, tmp804
	subsd	%xmm2, %xmm12	# vP680_d, tmp804
	movsd	%xmm12, 488(%rsp)	# tmp804, %sfp
.LVL282:
	.loc 27 144 5 is_stmt 1 view .LVU1310
	.loc 27 145 5 view .LVU1311
# FI_Rate.cpp:151:     const double v2z_1 = S2T * kz * Coeff;//	v2z_1	The rate of oxidation of S2T  by P680pPheon
	.loc 27 151 30 is_stmt 0 view .LVU1312
	movsd	272(%rsp), %xmm12	# %sfp, S2T
.LVL283:
# FI_Rate.cpp:145:     const double vS2_S3 = S2Tp * k23;//	vS2_S3	The rate of transition from S2 to S3
	.loc 27 145 18 view .LVU1313
	movsd	%xmm1, 240(%rsp)	# k23, %sfp
.LVL284:
	.loc 27 146 5 is_stmt 1 view .LVU1314
# FI_Rate.cpp:146:     const double vS3_S0 = S3Tp * k30;//	vS3_S0	The rate of transition from S3 to S0
	.loc 27 146 18 is_stmt 0 view .LVU1315
	movsd	96(%rsp), %xmm1	# %sfp, k30
.LVL285:
	.loc 27 146 18 view .LVU1316
	mulsd	248(%rsp), %xmm1	# %sfp, k30
# FI_Rate.cpp:151:     const double v2z_1 = S2T * kz * Coeff;//	v2z_1	The rate of oxidation of S2T  by P680pPheon
	.loc 27 151 30 view .LVU1317
	mulsd	%xmm4, %xmm12	# kz, S2T
# FI_Rate.cpp:146:     const double vS3_S0 = S3Tp * k30;//	vS3_S0	The rate of transition from S3 to S0
	.loc 27 146 18 view .LVU1318
	movsd	%xmm1, 248(%rsp)	# k30, %sfp
.LVL286:
	.loc 27 147 5 is_stmt 1 view .LVU1319
# FI_Rate.cpp:147:     const double vS0_S1 = S0Tp * k01;//	vS0_S1	The rate of transition from S0 to S1
	.loc 27 147 18 is_stmt 0 view .LVU1320
	movsd	104(%rsp), %xmm1	# %sfp, k01
.LVL287:
	.loc 27 147 18 view .LVU1321
	mulsd	256(%rsp), %xmm1	# %sfp, k01
# FI_Rate.cpp:151:     const double v2z_1 = S2T * kz * Coeff;//	v2z_1	The rate of oxidation of S2T  by P680pPheon
	.loc 27 151 30 view .LVU1322
	movapd	%xmm12, %xmm0	# S2T, _41
# FI_Rate.cpp:151:     const double v2z_1 = S2T * kz * Coeff;//	v2z_1	The rate of oxidation of S2T  by P680pPheon
	.loc 27 151 18 view .LVU1323
	mulsd	%xmm7, %xmm12	# P680pPheon, v2z_1
# FI_Rate.cpp:159:     const double v2z_2 = S2T * kz * Coeff;//	v2z_2	The rate of oxidation of S2T  by P680pPheo
	.loc 27 159 18 view .LVU1324
	mulsd	%xmm3, %xmm0	# P680pPheo, _41
# FI_Rate.cpp:147:     const double vS0_S1 = S0Tp * k01;//	vS0_S1	The rate of transition from S0 to S1
	.loc 27 147 18 view .LVU1325
	movsd	%xmm1, 256(%rsp)	# k01, %sfp
.LVL288:
	.loc 27 149 5 is_stmt 1 view .LVU1326
	.loc 27 150 5 view .LVU1327
# FI_Rate.cpp:150:     const double v1z_1 = S1T * kz * Coeff;//	v1z_1	The rate of oxidation of S1T by P680pPheon
	.loc 27 150 30 is_stmt 0 view .LVU1328
	movsd	264(%rsp), %xmm1	# %sfp, S1T
.LVL289:
# FI_Rate.cpp:151:     const double v2z_1 = S2T * kz * Coeff;//	v2z_1	The rate of oxidation of S2T  by P680pPheon
	.loc 27 151 18 view .LVU1329
	movsd	%xmm12, 16(%rsp)	# v2z_1, %sfp
# FI_Rate.cpp:150:     const double v1z_1 = S1T * kz * Coeff;//	v1z_1	The rate of oxidation of S1T by P680pPheon
	.loc 27 150 30 view .LVU1330
	mulsd	%xmm4, %xmm1	# kz, S1T
# FI_Rate.cpp:152:     const double v3z_1 = S3T * kz * Coeff;//	v3z_1	The rate of oxidation of S3T  by P680pPheon
	.loc 27 152 30 view .LVU1331
	movsd	280(%rsp), %xmm12	# %sfp, S3T
	mulsd	%xmm4, %xmm12	# kz, S3T
# FI_Rate.cpp:153:     const double v0z_1 = S0T * kz * Coeff;//	v0z_1	The rate of oxidation of S0T  by P680pPheon
	.loc 27 153 30 view .LVU1332
	mulsd	288(%rsp), %xmm4	# %sfp, _43
.LVL290:
# FI_Rate.cpp:150:     const double v1z_1 = S1T * kz * Coeff;//	v1z_1	The rate of oxidation of S1T by P680pPheon
	.loc 27 150 18 view .LVU1333
	movapd	%xmm1, %xmm14	# _40, v1z_1
	mulsd	%xmm7, %xmm14	# P680pPheon, v1z_1
# FI_Rate.cpp:158:     const double v1z_2 = S1T * kz * Coeff;//	v1z_2	The rate of oxidation of S1T by P680pPheo
	.loc 27 158 18 view .LVU1334
	mulsd	%xmm3, %xmm1	# P680pPheo, _40
# FI_Rate.cpp:152:     const double v3z_1 = S3T * kz * Coeff;//	v3z_1	The rate of oxidation of S3T  by P680pPheon
	.loc 27 152 18 view .LVU1335
	movapd	%xmm12, %xmm13	# _42, v3z_1
	mulsd	%xmm7, %xmm13	# P680pPheon, v3z_1
# FI_Rate.cpp:160:     const double v3z_2 = S3T * kz * Coeff;//	v3z_2	The rate of oxidation of S3T  by P680pPheo
	.loc 27 160 18 view .LVU1336
	mulsd	%xmm3, %xmm12	# P680pPheo, _42
# FI_Rate.cpp:150:     const double v1z_1 = S1T * kz * Coeff;//	v1z_1	The rate of oxidation of S1T by P680pPheon
	.loc 27 150 18 view .LVU1337
	movsd	%xmm14, 264(%rsp)	# v1z_1, %sfp
.LVL291:
	.loc 27 151 5 is_stmt 1 view .LVU1338
	.loc 27 152 5 view .LVU1339
# FI_Rate.cpp:152:     const double v3z_1 = S3T * kz * Coeff;//	v3z_1	The rate of oxidation of S3T  by P680pPheon
	.loc 27 152 18 is_stmt 0 view .LVU1340
	movapd	%xmm13, %xmm2	# v3z_1, v3z_1
.LVL292:
	.loc 27 153 5 is_stmt 1 view .LVU1341
	.loc 27 154 5 view .LVU1342
# FI_Rate.cpp:153:     const double v0z_1 = S0T * kz * Coeff;//	v0z_1	The rate of oxidation of S0T  by P680pPheon
	.loc 27 153 18 is_stmt 0 view .LVU1343
	movapd	%xmm4, %xmm13	# _43, v0z_1
	mulsd	%xmm7, %xmm13	# P680pPheon, v0z_1
# FI_Rate.cpp:154:     const double vz_1 = v1z_1 + v2z_1 + v3z_1 + v0z_1;//	vz_1	The rate of P680pPheon reduction
	.loc 27 154 39 view .LVU1344
	movsd	%xmm2, 72(%rsp)	# v3z_1, %sfp
# FI_Rate.cpp:161:     const double v0z_2 = S0T * kz * Coeff;//	v0z_2	The rate of oxidation of S0T  by P680pPheo
	.loc 27 161 18 view .LVU1345
	mulsd	%xmm3, %xmm4	# P680pPheo, _43
# FI_Rate.cpp:153:     const double v0z_1 = S0T * kz * Coeff;//	v0z_1	The rate of oxidation of S0T  by P680pPheon
	.loc 27 153 18 view .LVU1346
	movsd	%xmm13, 80(%rsp)	# v0z_1, %sfp
.LVL293:
# FI_Rate.cpp:154:     const double vz_1 = v1z_1 + v2z_1 + v3z_1 + v0z_1;//	vz_1	The rate of P680pPheon reduction
	.loc 27 154 31 view .LVU1347
	movsd	16(%rsp), %xmm13	# %sfp, tmp805
	addsd	%xmm14, %xmm13	# v1z_1, tmp805
# FI_Rate.cpp:154:     const double vz_1 = v1z_1 + v2z_1 + v3z_1 + v0z_1;//	vz_1	The rate of P680pPheon reduction
	.loc 27 154 39 view .LVU1348
	addsd	%xmm2, %xmm13	# v3z_1, tmp806
# FI_Rate.cpp:154:     const double vz_1 = v1z_1 + v2z_1 + v3z_1 + v0z_1;//	vz_1	The rate of P680pPheon reduction
	.loc 27 154 18 view .LVU1349
	movapd	%xmm13, %xmm2	# tmp806, tmp806
.LVL294:
	.loc 27 154 18 view .LVU1350
	movsd	80(%rsp), %xmm13	# %sfp, v0z_1
	addsd	%xmm13, %xmm2	# v0z_1, tmp806
	movsd	%xmm2, 272(%rsp)	# tmp806, %sfp
.LVL295:
	.loc 27 156 5 is_stmt 1 view .LVU1351
	.loc 27 158 5 view .LVU1352
# FI_Rate.cpp:160:     const double v3z_2 = S3T * kz * Coeff;//	v3z_2	The rate of oxidation of S3T  by P680pPheo
	.loc 27 160 18 is_stmt 0 view .LVU1353
	movapd	%xmm12, %xmm2	# _42, v3z_2
.LVL296:
# FI_Rate.cpp:162:     const double vz_2 = v1z_2 + v2z_2 + v3z_2 + v0z_2;//	vz_2	The rate of P680pPheo reduction
	.loc 27 162 31 view .LVU1354
	movapd	%xmm1, %xmm12	# v1z_2, v1z_2
# FI_Rate.cpp:158:     const double v1z_2 = S1T * kz * Coeff;//	v1z_2	The rate of oxidation of S1T by P680pPheo
	.loc 27 158 18 view .LVU1355
	movsd	%xmm1, 288(%rsp)	# v1z_2, %sfp
.LVL297:
	.loc 27 159 5 is_stmt 1 view .LVU1356
	.loc 27 160 5 view .LVU1357
	.loc 27 161 5 view .LVU1358
	.loc 27 162 5 view .LVU1359
# FI_Rate.cpp:159:     const double v2z_2 = S2T * kz * Coeff;//	v2z_2	The rate of oxidation of S2T  by P680pPheo
	.loc 27 159 18 is_stmt 0 view .LVU1360
	movsd	%xmm0, 88(%rsp)	# _41, %sfp
.LVL298:
# FI_Rate.cpp:162:     const double vz_2 = v1z_2 + v2z_2 + v3z_2 + v0z_2;//	vz_2	The rate of P680pPheo reduction
	.loc 27 162 31 view .LVU1361
	movapd	%xmm1, %xmm0	# v1z_2, tmp807
	movsd	88(%rsp), %xmm1	# %sfp, v2z_2
.LVL299:
# FI_Rate.cpp:161:     const double v0z_2 = S0T * kz * Coeff;//	v0z_2	The rate of oxidation of S0T  by P680pPheo
	.loc 27 161 18 view .LVU1362
	movsd	%xmm4, 104(%rsp)	# _43, %sfp
.LVL300:
# FI_Rate.cpp:164:     const double v1z = v1z_1 + v1z_2;
	.loc 27 164 18 view .LVU1363
	movapd	%xmm14, %xmm4	# v1z_1, v1z
# FI_Rate.cpp:174:     const double v_r3 = QAQB * PQn * k_r3 / PQT;//	v_r3	The rate of exchange of QAQB with PQH2
	.loc 27 174 30 view .LVU1364
	movsd	384(%rsp), %xmm14	# %sfp, PQn
.LVL301:
# FI_Rate.cpp:162:     const double vz_2 = v1z_2 + v2z_2 + v3z_2 + v0z_2;//	vz_2	The rate of P680pPheo reduction
	.loc 27 162 31 view .LVU1365
	addsd	%xmm1, %xmm0	# v2z_2, tmp807
.LVL302:
# FI_Rate.cpp:162:     const double vz_2 = v1z_2 + v2z_2 + v3z_2 + v0z_2;//	vz_2	The rate of P680pPheo reduction
	.loc 27 162 39 view .LVU1366
	movsd	%xmm2, 96(%rsp)	# v3z_2, %sfp
# FI_Rate.cpp:164:     const double v1z = v1z_1 + v1z_2;
	.loc 27 164 18 view .LVU1367
	addsd	%xmm12, %xmm4	# v1z_2, v1z
.LVL303:
# FI_Rate.cpp:170:     const double vBA1 = QAQBn * kBA1;//	vBA1	The rate of electron transfer from QB- to QA
	.loc 27 170 18 view .LVU1368
	movsd	184(%rsp), %xmm12	# %sfp, QAQBn
.LVL304:
# FI_Rate.cpp:164:     const double v1z = v1z_1 + v1z_2;
	.loc 27 164 18 view .LVU1369
	movsd	%xmm4, 296(%rsp)	# v1z, %sfp
# FI_Rate.cpp:162:     const double vz_2 = v1z_2 + v2z_2 + v3z_2 + v0z_2;//	vz_2	The rate of P680pPheo reduction
	.loc 27 162 39 view .LVU1370
	addsd	%xmm2, %xmm0	# v3z_2, tmp808
# FI_Rate.cpp:165:     const double v2z = v2z_1 + v2z_2;
	.loc 27 165 18 view .LVU1371
	movsd	16(%rsp), %xmm4	# %sfp, v2z
	addsd	%xmm1, %xmm4	# v2z_2, v2z
# FI_Rate.cpp:174:     const double v_r3 = QAQB * PQn * k_r3 / PQT;//	v_r3	The rate of exchange of QAQB with PQH2
	.loc 27 174 30 view .LVU1372
	movsd	176(%rsp), %xmm1	# %sfp, QAQB
# FI_Rate.cpp:162:     const double vz_2 = v1z_2 + v2z_2 + v3z_2 + v0z_2;//	vz_2	The rate of P680pPheo reduction
	.loc 27 162 18 view .LVU1373
	movapd	%xmm0, %xmm2	# tmp808, tmp808
.LVL305:
	.loc 27 162 18 view .LVU1374
	movsd	104(%rsp), %xmm0	# %sfp, v0z_2
	addsd	%xmm0, %xmm2	# v0z_2, tmp808
# FI_Rate.cpp:167:     const double v0z = v0z_1 + v0z_2;
	.loc 27 167 18 view .LVU1375
	addsd	%xmm0, %xmm13	# v0z_2, v0z
# FI_Rate.cpp:165:     const double v2z = v2z_1 + v2z_2;
	.loc 27 165 18 view .LVU1376
	movsd	%xmm4, 304(%rsp)	# v2z, %sfp
# FI_Rate.cpp:166:     const double v3z = v3z_1 + v3z_2;
	.loc 27 166 18 view .LVU1377
	movsd	72(%rsp), %xmm4	# %sfp, v3z
	addsd	96(%rsp), %xmm4	# %sfp, v3z
# FI_Rate.cpp:162:     const double vz_2 = v1z_2 + v2z_2 + v3z_2 + v0z_2;//	vz_2	The rate of P680pPheo reduction
	.loc 27 162 18 view .LVU1378
	movsd	%xmm2, 280(%rsp)	# tmp808, %sfp
.LVL306:
	.loc 27 164 5 is_stmt 1 view .LVU1379
	.loc 27 165 5 view .LVU1380
	.loc 27 166 5 view .LVU1381
# FI_Rate.cpp:169:     const double vAB1 = QAnQB * kAB1;//	vAB1	The rate of electron transfer from QA- to QB
	.loc 27 169 18 is_stmt 0 view .LVU1382
	movsd	328(%rsp), %xmm2	# %sfp, kAB1
.LVL307:
	.loc 27 169 18 view .LVU1383
	mulsd	8(%rsp), %xmm2	# %sfp, kAB1
# FI_Rate.cpp:167:     const double v0z = v0z_1 + v0z_2;
	.loc 27 167 18 view .LVU1384
	movsd	%xmm13, 320(%rsp)	# v0z, %sfp
# FI_Rate.cpp:173:     const double v3 = QAQB2n * PQ * k3 / PQT;//	v3	The rate of exchange of QAQBH2 with PQ
	.loc 27 173 30 view .LVU1385
	movsd	392(%rsp), %xmm13	# %sfp, PQ
# FI_Rate.cpp:166:     const double v3z = v3z_1 + v3z_2;
	.loc 27 166 18 view .LVU1386
	movsd	%xmm4, 312(%rsp)	# v3z, %sfp
.LVL308:
	.loc 27 167 5 is_stmt 1 view .LVU1387
	.loc 27 169 5 view .LVU1388
# FI_Rate.cpp:173:     const double v3 = QAQB2n * PQ * k3 / PQT;//	v3	The rate of exchange of QAQBH2 with PQ
	.loc 27 173 30 is_stmt 0 view .LVU1389
	movapd	%xmm13, %xmm4	# PQ, tmp809
.LVL309:
	.loc 27 173 30 view .LVU1390
	mulsd	%xmm6, %xmm4	# QAQB2n, tmp809
# FI_Rate.cpp:169:     const double vAB1 = QAnQB * kAB1;//	vAB1	The rate of electron transfer from QA- to QB
	.loc 27 169 18 view .LVU1391
	movsd	%xmm2, 328(%rsp)	# kAB1, %sfp
.LVL310:
	.loc 27 170 5 is_stmt 1 view .LVU1392
# FI_Rate.cpp:170:     const double vBA1 = QAQBn * kBA1;//	vBA1	The rate of electron transfer from QB- to QA
	.loc 27 170 18 is_stmt 0 view .LVU1393
	movsd	336(%rsp), %xmm2	# %sfp, kBA1
.LVL311:
	.loc 27 170 18 view .LVU1394
	mulsd	%xmm12, %xmm2	# QAQBn, kBA1
# FI_Rate.cpp:173:     const double v3 = QAQB2n * PQ * k3 / PQT;//	v3	The rate of exchange of QAQBH2 with PQ
	.loc 27 173 30 view .LVU1395
	movapd	%xmm4, %xmm0	# tmp809, tmp809
# FI_Rate.cpp:170:     const double vBA1 = QAQBn * kBA1;//	vBA1	The rate of electron transfer from QB- to QA
	.loc 27 170 18 view .LVU1396
	movsd	%xmm2, 184(%rsp)	# kBA1, %sfp
.LVL312:
	.loc 27 171 5 is_stmt 1 view .LVU1397
# FI_Rate.cpp:171:     const double vAB2 = QAnQBn * kAB2;//	vAB2	The rate of electron transfer from QA- to QB-
	.loc 27 171 18 is_stmt 0 view .LVU1398
	movsd	344(%rsp), %xmm2	# %sfp, kAB2
.LVL313:
	.loc 27 171 18 view .LVU1399
	mulsd	32(%rsp), %xmm2	# %sfp, kAB2
	movsd	%xmm2, 336(%rsp)	# kAB2, %sfp
.LVL314:
	.loc 27 172 5 is_stmt 1 view .LVU1400
# FI_Rate.cpp:172:     const double vBA2 = QAQB2n * kBA2;//	vBA2	The rate of electron transfer from QB2- TO QA
	.loc 27 172 18 is_stmt 0 view .LVU1401
	movsd	352(%rsp), %xmm2	# %sfp, kBA2
.LVL315:
	.loc 27 172 18 view .LVU1402
	mulsd	%xmm6, %xmm2	# QAQB2n, kBA2
# FI_Rate.cpp:185:     const double c = QAQB2n / (QAQB + QAQBn + QAQB2n);//	c
	.loc 27 185 18 view .LVU1403
	divsd	%xmm8, %xmm6	# _14, c
.LVL316:
# FI_Rate.cpp:172:     const double vBA2 = QAQB2n * kBA2;//	vBA2	The rate of electron transfer from QB2- TO QA
	.loc 27 172 18 view .LVU1404
	movsd	%xmm2, 344(%rsp)	# kBA2, %sfp
.LVL317:
	.loc 27 173 5 is_stmt 1 view .LVU1405
# FI_Rate.cpp:173:     const double v3 = QAQB2n * PQ * k3 / PQT;//	v3	The rate of exchange of QAQBH2 with PQ
	.loc 27 173 35 is_stmt 0 view .LVU1406
	movsd	360(%rsp), %xmm2	# %sfp, k3
.LVL318:
	.loc 27 173 35 view .LVU1407
	mulsd	%xmm2, %xmm0	# k3, tmp810
# FI_Rate.cpp:173:     const double v3 = QAQB2n * PQ * k3 / PQT;//	v3	The rate of exchange of QAQBH2 with PQ
	.loc 27 173 18 view .LVU1408
	movapd	%xmm0, %xmm4	# tmp810, tmp810
# FI_Rate.cpp:174:     const double v_r3 = QAQB * PQn * k_r3 / PQT;//	v_r3	The rate of exchange of QAQB with PQH2
	.loc 27 174 30 view .LVU1409
	movapd	%xmm1, %xmm0	# QAQB, tmp811
	mulsd	%xmm14, %xmm0	# PQn, tmp811
# FI_Rate.cpp:174:     const double v_r3 = QAQB * PQn * k_r3 / PQT;//	v_r3	The rate of exchange of QAQB with PQH2
	.loc 27 174 36 view .LVU1410
	mulsd	160(%rsp), %xmm0	# %sfp, tmp812
# FI_Rate.cpp:173:     const double v3 = QAQB2n * PQ * k3 / PQT;//	v3	The rate of exchange of QAQBH2 with PQ
	.loc 27 173 18 view .LVU1411
	divsd	%xmm9, %xmm4	# PQT, tmp810
# FI_Rate.cpp:183:     const double a = QAQB / (QAQB + QAQBn + QAQB2n);//	a
	.loc 27 183 18 view .LVU1412
	divsd	%xmm8, %xmm1	# _14, QAQB
# FI_Rate.cpp:173:     const double v3 = QAQB2n * PQ * k3 / PQT;//	v3	The rate of exchange of QAQBH2 with PQ
	.loc 27 173 18 view .LVU1413
	movsd	%xmm4, 352(%rsp)	# tmp810, %sfp
.LVL319:
	.loc 27 174 5 is_stmt 1 view .LVU1414
# FI_Rate.cpp:174:     const double v_r3 = QAQB * PQn * k_r3 / PQT;//	v_r3	The rate of exchange of QAQB with PQH2
	.loc 27 174 18 is_stmt 0 view .LVU1415
	movapd	%xmm0, %xmm4	# tmp812, tmp812
.LVL320:
	.loc 27 174 18 view .LVU1416
	divsd	%xmm9, %xmm4	# PQT, tmp812
	movsd	%xmm4, 176(%rsp)	# tmp812, %sfp
.LVL321:
	.loc 27 176 5 is_stmt 1 view .LVU1417
# FI_Rate.cpp:176:     const double v3_n = QAnQB2n * PQ * k3 / PQT;//	v3_n	The rate of exchange of QAnQBH2 with PQ
	.loc 27 176 33 is_stmt 0 view .LVU1418
	movsd	40(%rsp), %xmm4	# %sfp, tmp813
.LVL322:
	.loc 27 176 33 view .LVU1419
	mulsd	%xmm13, %xmm4	# PQ, tmp813
	movapd	%xmm4, %xmm0	# tmp813, tmp813
# FI_Rate.cpp:176:     const double v3_n = QAnQB2n * PQ * k3 / PQT;//	v3_n	The rate of exchange of QAnQBH2 with PQ
	.loc 27 176 38 view .LVU1420
	mulsd	%xmm2, %xmm0	# k3, tmp814
# FI_Rate.cpp:176:     const double v3_n = QAnQB2n * PQ * k3 / PQT;//	v3_n	The rate of exchange of QAnQBH2 with PQ
	.loc 27 176 18 view .LVU1421
	movapd	%xmm0, %xmm2	# tmp814, tmp814
	divsd	%xmm9, %xmm2	# PQT, tmp814
	movsd	%xmm2, 360(%rsp)	# tmp814, %sfp
.LVL323:
	.loc 27 177 5 is_stmt 1 view .LVU1422
# FI_Rate.cpp:177:     const double v_r3_n = QAnQB * PQn * k_r3 / PQT;//	v_r3_n	The rate of exchange of QAnQB with PQH2
	.loc 27 177 33 is_stmt 0 view .LVU1423
	movsd	8(%rsp), %xmm0	# %sfp, tmp815
	mulsd	%xmm14, %xmm0	# PQn, tmp815
# FI_Rate.cpp:177:     const double v_r3_n = QAnQB * PQn * k_r3 / PQT;//	v_r3_n	The rate of exchange of QAnQB with PQH2
	.loc 27 177 39 view .LVU1424
	mulsd	160(%rsp), %xmm0	# %sfp, tmp816
# FI_Rate.cpp:177:     const double v_r3_n = QAnQB * PQn * k_r3 / PQT;//	v_r3_n	The rate of exchange of QAnQB with PQH2
	.loc 27 177 18 view .LVU1425
	movapd	%xmm0, %xmm2	# tmp816, tmp816
.LVL324:
# FI_Rate.cpp:182:     const double v2_2 = P680Pheon * k2 * q;//	v2_1	The rate of P680pPheon oxidation
	.loc 27 182 35 view .LVU1426
	movsd	168(%rsp), %xmm0	# %sfp, P680Pheon
# FI_Rate.cpp:177:     const double v_r3_n = QAnQB * PQn * k_r3 / PQT;//	v_r3_n	The rate of exchange of QAnQB with PQH2
	.loc 27 177 18 view .LVU1427
	divsd	%xmm9, %xmm2	# PQT, tmp816
# FI_Rate.cpp:182:     const double v2_2 = P680Pheon * k2 * q;//	v2_1	The rate of P680pPheon oxidation
	.loc 27 182 35 view .LVU1428
	mulsd	%xmm5, %xmm0	# k2, P680Pheon
# FI_Rate.cpp:182:     const double v2_2 = P680Pheon * k2 * q;//	v2_1	The rate of P680pPheon oxidation
	.loc 27 182 18 view .LVU1429
	mulsd	%xmm11, %xmm0	# q, tmp818
	movsd	%xmm0, 168(%rsp)	# v2_2, %sfp
# FI_Rate.cpp:177:     const double v_r3_n = QAnQB * PQn * k_r3 / PQT;//	v_r3_n	The rate of exchange of QAnQB with PQH2
	.loc 27 177 18 view .LVU1430
	movsd	%xmm2, 160(%rsp)	# tmp816, %sfp
.LVL325:
	.loc 27 179 5 is_stmt 1 view .LVU1431
# FI_Rate.cpp:179:     const double v_pq_ox = PQn * k_pq_oxy;//	v_pq_ox	The rate of PQH2 oxidation
	.loc 27 179 18 is_stmt 0 view .LVU1432
	movsd	376(%rsp), %xmm2	# %sfp, k_pq_oxy
.LVL326:
	.loc 27 179 18 view .LVU1433
	mulsd	%xmm14, %xmm2	# PQn, k_pq_oxy
	movsd	%xmm2, 376(%rsp)	# k_pq_oxy, %sfp
.LVL327:
	.loc 27 181 5 is_stmt 1 view .LVU1434
# FI_Rate.cpp:181:     const double v2_1 = P680pPheon * k2 * q;//	v2_1	The rate of P680pPheon oxidation
	.loc 27 181 36 is_stmt 0 view .LVU1435
	movapd	%xmm5, %xmm2	# k2, tmp817
.LVL328:
	.loc 27 181 36 view .LVU1436
	mulsd	%xmm7, %xmm2	# P680pPheon, tmp817
# FI_Rate.cpp:181:     const double v2_1 = P680pPheon * k2 * q;//	v2_1	The rate of P680pPheon oxidation
	.loc 27 181 18 view .LVU1437
	movapd	%xmm2, %xmm4	# tmp817, tmp817
	mulsd	%xmm11, %xmm4	# q, tmp817
# FI_Rate.cpp:182:     const double v2_2 = P680Pheon * k2 * q;//	v2_1	The rate of P680pPheon oxidation
	.loc 27 182 18 view .LVU1438
	movapd	%xmm0, %xmm11	# tmp818, v2_2
.LVL329:
# FI_Rate.cpp:183:     const double a = QAQB / (QAQB + QAQBn + QAQB2n);//	a
	.loc 27 183 18 view .LVU1439
	movapd	%xmm1, %xmm0	# QAQB, a
# FI_Rate.cpp:184:     const double b = QAQBn / (QAQB + QAQBn + QAQB2n);//	b
	.loc 27 184 18 view .LVU1440
	movapd	%xmm12, %xmm1	# QAQBn, QAQBn
# FI_Rate.cpp:191:     const double v2_00_2 = v2_2 * a;//	v2_00_2	The rate of reduction of QAQB by P680Pheon
	.loc 27 191 18 view .LVU1441
	movapd	%xmm0, %xmm2	# a, a
# FI_Rate.cpp:184:     const double b = QAQBn / (QAQB + QAQBn + QAQB2n);//	b
	.loc 27 184 18 view .LVU1442
	divsd	%xmm8, %xmm1	# _14, QAQBn
# FI_Rate.cpp:208:     const double vP680qU = pow(10, 9) * U * (P680pPheo + P680pPheon) + U * 0.15 * (kU_f + kU_d) * PQ / PQT;
	.loc 27 208 74 view .LVU1443
	movsd	.LC27(%rip), %xmm8	#, tmp828
.LVL330:
# FI_Rate.cpp:191:     const double v2_00_2 = v2_2 * a;//	v2_00_2	The rate of reduction of QAQB by P680Pheon
	.loc 27 191 18 view .LVU1444
	mulsd	%xmm11, %xmm2	# v2_2, a
# FI_Rate.cpp:188:     const double v2_01_1 = v2_1 * b;//	v2_01_1	The rate of reduction of QAQBn by P680pPheon
	.loc 27 188 18 view .LVU1445
	movapd	%xmm4, %xmm14	# v2_1, v2_01_1
# FI_Rate.cpp:187:     const double v2_00_1 = v2_1 * a;//	v2_00_1	The rate of reduction of QAQB by P680pPheon
	.loc 27 187 18 view .LVU1446
	movapd	%xmm4, %xmm12	# v2_1, v2_00_1
# FI_Rate.cpp:181:     const double v2_1 = P680pPheon * k2 * q;//	v2_1	The rate of P680pPheon oxidation
	.loc 27 181 18 view .LVU1447
	movsd	%xmm4, 384(%rsp)	# v2_1, %sfp
.LVL331:
	.loc 27 182 5 is_stmt 1 view .LVU1448
	.loc 27 183 5 view .LVU1449
	.loc 27 184 5 view .LVU1450
	.loc 27 185 5 view .LVU1451
	.loc 27 187 5 view .LVU1452
# FI_Rate.cpp:187:     const double v2_00_1 = v2_1 * a;//	v2_00_1	The rate of reduction of QAQB by P680pPheon
	.loc 27 187 18 is_stmt 0 view .LVU1453
	mulsd	%xmm0, %xmm12	# a, v2_00_1
# FI_Rate.cpp:197:     const double vr2_00_1 = QAnQB * k2 / KE * Coeff1;//	vr2_00_1	The reverse reaction of The rate of reduction of QAQB by P680pPheon
	.loc 27 197 40 view .LVU1454
	movsd	.LC26(%rip), %xmm0	#, tmp820
.LVL332:
# FI_Rate.cpp:189:     const double v2_02_1 = v2_1 * c;//	v2_02_1	The rate of reduction of QAQB2n by P680pPheon
	.loc 27 189 18 view .LVU1455
	mulsd	%xmm6, %xmm4	# c, v2_02_1
.LVL333:
# FI_Rate.cpp:191:     const double v2_00_2 = v2_2 * a;//	v2_00_2	The rate of reduction of QAQB by P680Pheon
	.loc 27 191 18 view .LVU1456
	movsd	%xmm2, 416(%rsp)	# a, %sfp
# FI_Rate.cpp:187:     const double v2_00_1 = v2_1 * a;//	v2_00_1	The rate of reduction of QAQB by P680pPheon
	.loc 27 187 18 view .LVU1457
	movsd	%xmm12, 392(%rsp)	# v2_00_1, %sfp
.LVL334:
	.loc 27 188 5 is_stmt 1 view .LVU1458
# FI_Rate.cpp:189:     const double v2_02_1 = v2_1 * c;//	v2_02_1	The rate of reduction of QAQB2n by P680pPheon
	.loc 27 189 18 is_stmt 0 view .LVU1459
	movsd	%xmm4, 408(%rsp)	# v2_02_1, %sfp
# FI_Rate.cpp:188:     const double v2_01_1 = v2_1 * b;//	v2_01_1	The rate of reduction of QAQBn by P680pPheon
	.loc 27 188 18 view .LVU1460
	mulsd	%xmm1, %xmm14	# b, v2_01_1
.LVL335:
# FI_Rate.cpp:192:     const double v2_01_2 = v2_2 * b;//	v2_01_2	The rate of reduction of QAQBn by P680Pheon
	.loc 27 192 18 view .LVU1461
	movapd	%xmm1, %xmm2	# b, b
# FI_Rate.cpp:198:     const double vr2_01_1 = QAnQBn * k2 / KE * Coeff1;//	vr2_01_1	The reverse reaction of The rate of reduction of QAQBn by P680pPheon
	.loc 27 198 36 view .LVU1462
	movsd	32(%rsp), %xmm1	# %sfp, QAnQBn
.LVL336:
# FI_Rate.cpp:192:     const double v2_01_2 = v2_2 * b;//	v2_01_2	The rate of reduction of QAQBn by P680Pheon
	.loc 27 192 18 view .LVU1463
	mulsd	%xmm11, %xmm2	# v2_2, b
.LVL337:
# FI_Rate.cpp:198:     const double vr2_01_1 = QAnQBn * k2 / KE * Coeff1;//	vr2_01_1	The reverse reaction of The rate of reduction of QAQBn by P680pPheon
	.loc 27 198 36 view .LVU1464
	mulsd	%xmm5, %xmm1	# k2, QAnQBn
# FI_Rate.cpp:188:     const double v2_01_1 = v2_1 * b;//	v2_01_1	The rate of reduction of QAQBn by P680pPheon
	.loc 27 188 18 view .LVU1465
	movsd	%xmm14, 400(%rsp)	# v2_01_1, %sfp
.LVL338:
	.loc 27 189 5 is_stmt 1 view .LVU1466
	.loc 27 191 5 view .LVU1467
	.loc 27 192 5 view .LVU1468
# FI_Rate.cpp:192:     const double v2_01_2 = v2_2 * b;//	v2_01_2	The rate of reduction of QAQBn by P680Pheon
	.loc 27 192 18 is_stmt 0 view .LVU1469
	movsd	%xmm2, 424(%rsp)	# b, %sfp
.LVL339:
	.loc 27 193 5 is_stmt 1 view .LVU1470
# FI_Rate.cpp:193:     const double v2_02_2 = v2_2 * c;//	v2_02_2	The rate of reduction of QAQB2n by P680Pheon
	.loc 27 193 18 is_stmt 0 view .LVU1471
	movapd	%xmm6, %xmm2	# c, c
.LVL340:
# FI_Rate.cpp:203:     const double vr2_00_2 = QAnQB * k2 / KE * Coeff2;//	vr2_00_2	The reverse reaction of The rate of reduction of QAQB by P680Pheon
	.loc 27 203 18 view .LVU1472
	movsd	448(%rsp), %xmm6	# %sfp, P680Pheo
.LVL341:
# FI_Rate.cpp:193:     const double v2_02_2 = v2_2 * c;//	v2_02_2	The rate of reduction of QAQB2n by P680Pheon
	.loc 27 193 18 view .LVU1473
	mulsd	%xmm11, %xmm2	# v2_2, c
.LVL342:
# FI_Rate.cpp:198:     const double vr2_01_1 = QAnQBn * k2 / KE * Coeff1;//	vr2_01_1	The reverse reaction of The rate of reduction of QAQBn by P680pPheon
	.loc 27 198 41 view .LVU1474
	divsd	%xmm0, %xmm1	# tmp820, _61
# FI_Rate.cpp:193:     const double v2_02_2 = v2_2 * c;//	v2_02_2	The rate of reduction of QAQB2n by P680Pheon
	.loc 27 193 18 view .LVU1475
	movsd	%xmm2, 432(%rsp)	# c, %sfp
.LVL343:
	.loc 27 195 5 is_stmt 1 view .LVU1476
	.loc 27 196 5 view .LVU1477
	.loc 27 197 5 view .LVU1478
# FI_Rate.cpp:197:     const double vr2_00_1 = QAnQB * k2 / KE * Coeff1;//	vr2_00_1	The reverse reaction of The rate of reduction of QAQB by P680pPheon
	.loc 27 197 35 is_stmt 0 view .LVU1479
	movsd	8(%rsp), %xmm2	# %sfp, QAnQB
.LVL344:
	.loc 27 197 35 view .LVU1480
	mulsd	%xmm5, %xmm2	# k2, QAnQB
# FI_Rate.cpp:199:     const double vr2_02_1 = QAnQB2n * k2 / KE * Coeff1;//	vr2_02_1	The reverse reaction of The rate of reduction of QAQB2n by P680pPheon
	.loc 27 199 37 view .LVU1481
	mulsd	40(%rsp), %xmm5	# %sfp, tmp823
.LVL345:
# FI_Rate.cpp:197:     const double vr2_00_1 = QAnQB * k2 / KE * Coeff1;//	vr2_00_1	The reverse reaction of The rate of reduction of QAQB by P680pPheon
	.loc 27 197 40 view .LVU1482
	divsd	%xmm0, %xmm2	# tmp820, _59
# FI_Rate.cpp:198:     const double vr2_01_1 = QAnQBn * k2 / KE * Coeff1;//	vr2_01_1	The reverse reaction of The rate of reduction of QAQBn by P680pPheon
	.loc 27 198 18 view .LVU1483
	movapd	%xmm1, %xmm12	# _61, vr2_01_1
.LVL346:
	.loc 27 198 18 view .LVU1484
	mulsd	%xmm3, %xmm12	# P680pPheo, vr2_01_1
	movsd	%xmm12, 32(%rsp)	# vr2_01_1, %sfp
# FI_Rate.cpp:199:     const double vr2_02_1 = QAnQB2n * k2 / KE * Coeff1;//	vr2_02_1	The reverse reaction of The rate of reduction of QAQB2n by P680pPheon
	.loc 27 199 42 view .LVU1485
	divsd	%xmm0, %xmm5	# tmp820, _63
# FI_Rate.cpp:208:     const double vP680qU = pow(10, 9) * U * (P680pPheo + P680pPheon) + U * 0.15 * (kU_f + kU_d) * PQ / PQT;
	.loc 27 208 89 view .LVU1486
	movsd	24(%rsp), %xmm0	# %sfp, kU_d
	addsd	152(%rsp), %xmm0	# %sfp, kU_d
# FI_Rate.cpp:197:     const double vr2_00_1 = QAnQB * k2 / KE * Coeff1;//	vr2_00_1	The reverse reaction of The rate of reduction of QAQB by P680pPheon
	.loc 27 197 18 view .LVU1487
	movapd	%xmm2, %xmm11	# _59, vr2_00_1
.LVL347:
	.loc 27 197 18 view .LVU1488
	mulsd	%xmm3, %xmm11	# P680pPheo, vr2_00_1
# FI_Rate.cpp:203:     const double vr2_00_2 = QAnQB * k2 / KE * Coeff2;//	vr2_00_2	The reverse reaction of The rate of reduction of QAQB by P680Pheon
	.loc 27 203 18 view .LVU1489
	mulsd	%xmm6, %xmm2	# P680Pheo, _59
# FI_Rate.cpp:197:     const double vr2_00_1 = QAnQB * k2 / KE * Coeff1;//	vr2_00_1	The reverse reaction of The rate of reduction of QAQB by P680pPheon
	.loc 27 197 18 view .LVU1490
	movsd	%xmm11, 8(%rsp)	# vr2_00_1, %sfp
.LVL348:
	.loc 27 198 5 is_stmt 1 view .LVU1491
	.loc 27 199 5 view .LVU1492
# FI_Rate.cpp:200:     const double vr2_1 = vr2_00_1 + vr2_01_1 + vr2_02_1;//	vr2_1
	.loc 27 200 35 is_stmt 0 view .LVU1493
	addsd	%xmm12, %xmm11	# vr2_01_1, tmp825
.LVL349:
# FI_Rate.cpp:203:     const double vr2_00_2 = QAnQB * k2 / KE * Coeff2;//	vr2_00_2	The reverse reaction of The rate of reduction of QAQB by P680Pheon
	.loc 27 203 18 view .LVU1494
	movsd	%xmm2, 448(%rsp)	# vr2_00_2, %sfp
# FI_Rate.cpp:199:     const double vr2_02_1 = QAnQB2n * k2 / KE * Coeff1;//	vr2_02_1	The reverse reaction of The rate of reduction of QAQB2n by P680pPheon
	.loc 27 199 18 view .LVU1495
	movapd	%xmm5, %xmm4	# _63, vr2_02_1
.LVL350:
	.loc 27 199 18 view .LVU1496
	mulsd	%xmm3, %xmm4	# P680pPheo, vr2_02_1
# FI_Rate.cpp:208:     const double vP680qU = pow(10, 9) * U * (P680pPheo + P680pPheon) + U * 0.15 * (kU_f + kU_d) * PQ / PQT;
	.loc 27 208 56 view .LVU1497
	addsd	%xmm7, %xmm3	# P680pPheon, _67
.LVL351:
# FI_Rate.cpp:208:     const double vP680qU = pow(10, 9) * U * (P680pPheo + P680pPheon) + U * 0.15 * (kU_f + kU_d) * PQ / PQT;
	.loc 27 208 39 view .LVU1498
	movsd	.LC28(%rip), %xmm7	#, tmp834
.LVL352:
# FI_Rate.cpp:205:     const double vr2_02_2 = QAnQB2n * k2 / KE * Coeff2;//	vr2_02_2	The reverse reaction of The rate of reduction of QAQB2n by P680Pheon
	.loc 27 205 18 view .LVU1499
	mulsd	%xmm6, %xmm5	# P680Pheo, _63
# FI_Rate.cpp:200:     const double vr2_1 = vr2_00_1 + vr2_01_1 + vr2_02_1;//	vr2_1
	.loc 27 200 18 view .LVU1500
	addsd	%xmm4, %xmm11	# vr2_02_1, tmp825
# FI_Rate.cpp:199:     const double vr2_02_1 = QAnQB2n * k2 / KE * Coeff1;//	vr2_02_1	The reverse reaction of The rate of reduction of QAQB2n by P680pPheon
	.loc 27 199 18 view .LVU1501
	movsd	%xmm4, 40(%rsp)	# vr2_02_1, %sfp
.LVL353:
	.loc 27 200 5 is_stmt 1 view .LVU1502
# FI_Rate.cpp:204:     const double vr2_01_2 = QAnQBn * k2 / KE * Coeff2;//	vr2_01_2	The reverse reaction of The rate of reduction of QAQBn by P680Pheon
	.loc 27 204 18 is_stmt 0 view .LVU1503
	movapd	%xmm1, %xmm4	# _61, _61
.LVL354:
# FI_Rate.cpp:208:     const double vP680qU = pow(10, 9) * U * (P680pPheo + P680pPheon) + U * 0.15 * (kU_f + kU_d) * PQ / PQT;
	.loc 27 208 74 view .LVU1504
	movapd	%xmm10, %xmm1	# U, tmp827
# FI_Rate.cpp:205:     const double vr2_02_2 = QAnQB2n * k2 / KE * Coeff2;//	vr2_02_2	The reverse reaction of The rate of reduction of QAQB2n by P680Pheon
	.loc 27 205 18 view .LVU1505
	movsd	%xmm5, 464(%rsp)	# vr2_02_2, %sfp
# FI_Rate.cpp:208:     const double vP680qU = pow(10, 9) * U * (P680pPheo + P680pPheon) + U * 0.15 * (kU_f + kU_d) * PQ / PQT;
	.loc 27 208 74 view .LVU1506
	mulsd	%xmm8, %xmm1	# tmp828, tmp827
# FI_Rate.cpp:208:     const double vP680qU = pow(10, 9) * U * (P680pPheo + P680pPheon) + U * 0.15 * (kU_f + kU_d) * PQ / PQT;
	.loc 27 208 39 view .LVU1507
	mulsd	%xmm7, %xmm10	# tmp834, U
.LVL355:
# FI_Rate.cpp:200:     const double vr2_1 = vr2_00_1 + vr2_01_1 + vr2_02_1;//	vr2_1
	.loc 27 200 18 view .LVU1508
	movsd	%xmm11, 440(%rsp)	# tmp825, %sfp
.LVL356:
	.loc 27 202 5 is_stmt 1 view .LVU1509
	.loc 27 203 5 view .LVU1510
	.loc 27 204 5 view .LVU1511
# FI_Rate.cpp:204:     const double vr2_01_2 = QAnQBn * k2 / KE * Coeff2;//	vr2_01_2	The reverse reaction of The rate of reduction of QAQBn by P680Pheon
	.loc 27 204 18 is_stmt 0 view .LVU1512
	mulsd	%xmm6, %xmm4	# P680Pheo, _61
# FI_Rate.cpp:209:     const double vP680qA = pow(10, 9) * A * (P680pPheo + P680pPheon) + A * 0.15 * (kA_f + kA_d) * PQ / PQT;
	.loc 27 209 74 view .LVU1513
	mulsd	%xmm15, %xmm8	# A, tmp836
# FI_Rate.cpp:209:     const double vP680qA = pow(10, 9) * A * (P680pPheo + P680pPheon) + A * 0.15 * (kA_f + kA_d) * PQ / PQT;
	.loc 27 209 39 view .LVU1514
	mulsd	%xmm15, %xmm7	# A, tmp842
# FI_Rate.cpp:208:     const double vP680qU = pow(10, 9) * U * (P680pPheo + P680pPheon) + U * 0.15 * (kU_f + kU_d) * PQ / PQT;
	.loc 27 208 81 view .LVU1515
	mulsd	%xmm0, %xmm1	# tmp829, tmp830
# FI_Rate.cpp:208:     const double vP680qU = pow(10, 9) * U * (P680pPheo + P680pPheon) + U * 0.15 * (kU_f + kU_d) * PQ / PQT;
	.loc 27 208 39 view .LVU1516
	movapd	%xmm10, %xmm0	# U, tmp833
# FI_Rate.cpp:208:     const double vP680qU = pow(10, 9) * U * (P680pPheo + P680pPheon) + U * 0.15 * (kU_f + kU_d) * PQ / PQT;
	.loc 27 208 43 view .LVU1517
	mulsd	%xmm3, %xmm0	# _67, tmp835
# FI_Rate.cpp:206:     const double vr2_2 = vr2_00_2 + vr2_01_2 + vr2_02_2;//	vr2_2
	.loc 27 206 35 view .LVU1518
	addsd	%xmm4, %xmm2	# vr2_01_2, tmp826
.LVL357:
# FI_Rate.cpp:204:     const double vr2_01_2 = QAnQBn * k2 / KE * Coeff2;//	vr2_01_2	The reverse reaction of The rate of reduction of QAQBn by P680Pheon
	.loc 27 204 18 view .LVU1519
	movsd	%xmm4, 456(%rsp)	# vr2_01_2, %sfp
.LVL358:
	.loc 27 205 5 is_stmt 1 view .LVU1520
	.loc 27 206 5 view .LVU1521
# FI_Rate.cpp:209:     const double vP680qA = pow(10, 9) * A * (P680pPheo + P680pPheon) + A * 0.15 * (kA_f + kA_d) * PQ / PQT;
	.loc 27 209 43 is_stmt 0 view .LVU1522
	mulsd	%xmm7, %xmm3	# tmp842, tmp844
# FI_Rate.cpp:208:     const double vP680qU = pow(10, 9) * U * (P680pPheo + P680pPheon) + U * 0.15 * (kU_f + kU_d) * PQ / PQT;
	.loc 27 208 97 view .LVU1523
	mulsd	%xmm13, %xmm1	# PQ, tmp831
# FI_Rate.cpp:206:     const double vr2_2 = vr2_00_2 + vr2_01_2 + vr2_02_2;//	vr2_2
	.loc 27 206 18 view .LVU1524
	movapd	%xmm2, %xmm6	# tmp826, tmp826
	addsd	%xmm5, %xmm6	# vr2_02_2, tmp826
	movsd	%xmm6, 472(%rsp)	# tmp826, %sfp
.LVL359:
	.loc 27 208 5 is_stmt 1 view .LVU1525
# FI_Rate.cpp:208:     const double vP680qU = pow(10, 9) * U * (P680pPheo + P680pPheon) + U * 0.15 * (kU_f + kU_d) * PQ / PQT;
	.loc 27 208 102 is_stmt 0 view .LVU1526
	divsd	%xmm9, %xmm1	# PQT, tmp832
# FI_Rate.cpp:208:     const double vP680qU = pow(10, 9) * U * (P680pPheo + P680pPheon) + U * 0.15 * (kU_f + kU_d) * PQ / PQT;
	.loc 27 208 18 view .LVU1527
	addsd	%xmm0, %xmm1	# tmp835, tmp832
	movsd	%xmm1, 24(%rsp)	# tmp832, %sfp
.LVL360:
	.loc 27 209 5 is_stmt 1 view .LVU1528
# FI_Rate.cpp:209:     const double vP680qA = pow(10, 9) * A * (P680pPheo + P680pPheon) + A * 0.15 * (kA_f + kA_d) * PQ / PQT;
	.loc 27 209 89 is_stmt 0 view .LVU1529
	movsd	136(%rsp), %xmm0	# %sfp, kA_d
# FI_Rate.cpp:224:     if (myVars->FI_TIME_N == 0)
	.loc 27 224 17 view .LVU1530
	movq	40(%rbx), %rdx	# myVars_278(D)->FI_TIME_N, _81
# FI_Rate.cpp:209:     const double vP680qA = pow(10, 9) * A * (P680pPheo + P680pPheon) + A * 0.15 * (kA_f + kA_d) * PQ / PQT;
	.loc 27 209 89 view .LVU1531
	addsd	144(%rsp), %xmm0	# %sfp, kA_d
# FI_Rate.cpp:209:     const double vP680qA = pow(10, 9) * A * (P680pPheo + P680pPheon) + A * 0.15 * (kA_f + kA_d) * PQ / PQT;
	.loc 27 209 81 view .LVU1532
	mulsd	%xmm0, %xmm8	# tmp838, tmp839
# FI_Rate.cpp:209:     const double vP680qA = pow(10, 9) * A * (P680pPheo + P680pPheon) + A * 0.15 * (kA_f + kA_d) * PQ / PQT;
	.loc 27 209 97 view .LVU1533
	mulsd	%xmm13, %xmm8	# PQ, tmp840
# FI_Rate.cpp:209:     const double vP680qA = pow(10, 9) * A * (P680pPheo + P680pPheon) + A * 0.15 * (kA_f + kA_d) * PQ / PQT;
	.loc 27 209 102 view .LVU1534
	divsd	%xmm9, %xmm8	# PQT, tmp841
# FI_Rate.cpp:209:     const double vP680qA = pow(10, 9) * A * (P680pPheo + P680pPheon) + A * 0.15 * (kA_f + kA_d) * PQ / PQT;
	.loc 27 209 18 view .LVU1535
	addsd	%xmm3, %xmm8	# tmp844, tmp841
	movsd	%xmm8, 136(%rsp)	# tmp841, %sfp
.LVL361:
	.loc 27 224 5 is_stmt 1 view .LVU1536
	testq	%rdx, %rdx	# _81
	jne	.L123	#,
	.loc 27 225 9 view .LVU1537
# FI_Rate.cpp:225:         myVars->FI_TIME_N = 1;
	.loc 27 225 27 is_stmt 0 view .LVU1538
	movq	$1, 40(%rbx)	#, myVars_278(D)->FI_TIME_N
	movl	$1, %edx	#, _81
.L123:
	.loc 27 228 5 is_stmt 1 view .LVU1539
# FI_Rate.cpp:228:     if (t > myVars->FI_OLD_TIME) {
	.loc 27 228 11 is_stmt 0 view .LVU1540
	movq	32(%rbx), %rax	# myVars_278(D)->FI_OLD_TIME, myVars_278(D)->FI_OLD_TIME
.LVL362:
	.loc 27 228 11 view .LVU1541
	testq	%rax, %rax	# myVars_278(D)->FI_OLD_TIME
	js	.L125	#,
	pxor	%xmm0, %xmm0	# tmp845
	cvtsi2sdq	%rax, %xmm0	# myVars_278(D)->FI_OLD_TIME, tmp845
.L126:
# FI_Rate.cpp:228:     if (t > myVars->FI_OLD_TIME) {
	.loc 27 228 5 view .LVU1542
	movsd	128(%rsp), %xmm3	# %sfp, t
	comisd	%xmm0, %xmm3	# tmp845, t
	jbe	.L124	#,
	.loc 27 229 9 is_stmt 1 view .LVU1543
# FI_Rate.cpp:230:         myVars->FI_OLD_TIME = t;
	.loc 27 230 29 is_stmt 0 view .LVU1544
	movsd	.LC29(%rip), %xmm0	#, tmp850
# FI_Rate.cpp:229:         myVars->FI_TIME_N = myVars->FI_TIME_N + 1;
	.loc 27 229 47 view .LVU1545
	addq	$1, %rdx	#, _81
# FI_Rate.cpp:229:         myVars->FI_TIME_N = myVars->FI_TIME_N + 1;
	.loc 27 229 27 view .LVU1546
	movq	%rdx, 40(%rbx)	# _81, myVars_278(D)->FI_TIME_N
	.loc 27 230 9 is_stmt 1 view .LVU1547
# FI_Rate.cpp:230:         myVars->FI_OLD_TIME = t;
	.loc 27 230 29 is_stmt 0 view .LVU1548
	comisd	%xmm0, %xmm3	# tmp850, t
	jb	.L141	#,
	movsd	128(%rsp), %xmm5	# %sfp, tmp852
.LVL363:
	.loc 27 230 29 view .LVU1549
	subsd	%xmm0, %xmm5	# tmp850, tmp852
	cvttsd2siq	%xmm5, %rax	# tmp852, tmp854
	movq	%rax, 32(%rbx)	# tmp854, myVars_278(D)->FI_OLD_TIME
	btcq	$63, 32(%rbx)	#, myVars_278(D)->FI_OLD_TIME
.LVL364:
.L124:
	.loc 27 233 5 is_stmt 1 view .LVU1550
	leaq	4240(%rbx), %rbp	#, pretmp_1959
	cmpq	%rdx, 4272(%rbx)	# _81, MEM[(const size_type *)myVars_278(D) + 4272B]
	jb	.L142	#,
.LVL365:
.L130:
	.loc 27 238 5 view .LVU1551
# FI_Rate.cpp:238:     myVars->FI_VEL[myVars->FI_TIME_N - 1][0] = t;
	.loc 27 238 38 is_stmt 0 view .LVU1552
	subq	$1, %rdx	#, tmp861
# FI_Rate.cpp:238:     myVars->FI_VEL[myVars->FI_TIME_N - 1][0] = t;
	.loc 27 238 44 view .LVU1553
	movq	%rbp, %rsi	# pretmp_1959,
	leaq	496(%rsp), %rdi	#,
	call	_ZN5boost15multi_array_refIdLm2EEixEl	#
.LVL366:
.LBB5927:
.LBI5927:
	.loc 3 259 13 is_stmt 1 view .LVU1554
.LBB5928:
# /usr/include/boost/multi_array/subarray.hpp:260:     return super_type::access(boost::type<reference>(),
	.loc 3 260 30 is_stmt 0 view .LVU1555
	movq	520(%rsp), %rax	# MEM[(const index * *)&D.103535 + 24B], MEM[(const index * *)&D.103535 + 24B]
	movq	504(%rsp), %rcx	# MEM[(const size_type * *)&D.103535 + 8B], _1007
.LVL367:
	.loc 3 260 30 view .LVU1556
	movq	496(%rsp), %rdx	# D.103535.D.103533.base_, _1008
	movq	(%rax), %rax	# MEM[(const index *)_1005], _1009
.LVL368:
.LBB5929:
.LBI5929:
	.loc 1 170 13 is_stmt 1 view .LVU1557
.LBB5930:
# /usr/include/boost/multi_array/base.hpp:177:     BOOST_ASSERT(idx - index_bases[0] >= 0);
	.loc 1 177 5 is_stmt 0 view .LVU1558
	movq	%rax, %rsi	# _1009, _1952
	negq	%rsi	# _1952
	testq	%rax, %rax	# _1009
	jg	.L135	#,
# /usr/include/boost/multi_array/base.hpp:178:     BOOST_ASSERT(size_type(idx - index_bases[0]) < extents[0]);
	.loc 1 178 5 view .LVU1559
	cmpq	(%rcx), %rsi	# MEM[(const size_type *)_1007], _1952
	jnb	.L136	#,
.LVL369:
	.loc 1 178 5 view .LVU1560
.LBE5930:
.LBE5929:
.LBE5928:
.LBE5927:
# FI_Rate.cpp:239:     myVars->FI_VEL[myVars->FI_TIME_N - 1][1] = vA_d;
	.loc 27 239 38 view .LVU1561
	movq	40(%rbx), %rax	# myVars_278(D)->FI_TIME_N, tmp1276
.LBB5934:
.LBB5935:
# /usr/include/boost/multi_array/multi_array_ref.hpp:523:                               this->index_bases());
	.loc 2 523 50 view .LVU1562
	movq	4240(%rbx), %rsi	# MEM[(double * *)myVars_278(D) + 4240B], _1946
.LBE5935:
.LBE5934:
# FI_Rate.cpp:238:     myVars->FI_VEL[myVars->FI_TIME_N - 1][0] = t;
	.loc 27 238 46 view .LVU1563
	movsd	128(%rsp), %xmm5	# %sfp, t
	movsd	%xmm5, (%rdx)	# t, *_1008
.LVL370:
.LBB5951:
.LBI5951:
	.loc 3 202 7 is_stmt 1 view .LVU1564
.LBB5952:
.LBI5952:
	.loc 3 39 7 view .LVU1565
.LBB5953:
.LBI5953:
	.loc 1 295 3 view .LVU1566
.LBB5954:
.LBI5954:
	.loc 1 183 3 view .LVU1567
	.loc 1 183 3 is_stmt 0 view .LVU1568
.LBE5954:
.LBE5953:
.LBE5952:
.LBE5951:
	.loc 27 239 5 is_stmt 1 view .LVU1569
# FI_Rate.cpp:239:     myVars->FI_VEL[myVars->FI_TIME_N - 1][1] = vA_d;
	.loc 27 239 38 is_stmt 0 view .LVU1570
	leaq	-1(%rax), %rdx	#, _100
.LVL371:
.LBB5955:
.LBI5934:
	.loc 2 519 13 is_stmt 1 view .LVU1571
.LBB5948:
.LBB5936:
.LBI5936:
	.loc 2 504 12 view .LVU1572
.LBB5937:
# /usr/include/boost/multi_array/multi_array_ref.hpp:504:   element* origin() { return super_type::base_+super_type::origin_offset_; }
	.loc 2 504 47 is_stmt 0 view .LVU1573
	movq	4320(%rbx), %rax	# MEM[(long int *)myVars_278(D) + 4320B], _1948
.LVL372:
	.loc 2 504 47 view .LVU1574
.LBE5937:
.LBE5936:
.LBB5938:
.LBI5938:
	.loc 1 130 13 is_stmt 1 view .LVU1575
.LBB5939:
# /usr/include/boost/multi_array/base.hpp:135:     BOOST_ASSERT(idx - index_bases[0] >= 0);
	.loc 1 135 5 is_stmt 0 view .LVU1576
	movq	%rdx, %rcx	# _100, _1961
	subq	4304(%rbx), %rcx	# MEM[(const index *)myVars_278(D) + 4304B], _1961
	js	.L137	#,
# /usr/include/boost/multi_array/base.hpp:136:     BOOST_ASSERT(size_type(idx - index_bases[0]) < extents[0]);
	.loc 1 136 5 view .LVU1577
	cmpq	4272(%rbx), %rcx	# MEM[(const size_type *)myVars_278(D) + 4272B], _1961
	jnb	.L138	#,
# /usr/include/boost/multi_array/base.hpp:138:     TPtr newbase = base + idx * strides[0];
	.loc 1 138 31 view .LVU1578
	movq	4288(%rbx), %rdi	# MEM[(const index *)myVars_278(D) + 4288B], _1966
.LBE5939:
.LBE5938:
.LBE5948:
.LBE5955:
.LBB5956:
.LBB5957:
.LBB5958:
.LBB5959:
# /usr/include/boost/multi_array/base.hpp:177:     BOOST_ASSERT(idx - index_bases[0] >= 0);
	.loc 1 177 5 view .LVU1579
	movl	$1, %ecx	#, tmp864
.LBE5959:
.LBE5958:
.LBE5957:
.LBE5956:
.LBB5966:
.LBB5949:
.LBB5946:
.LBB5944:
# /usr/include/boost/multi_array/base.hpp:138:     TPtr newbase = base + idx * strides[0];
	.loc 1 138 31 view .LVU1580
	imulq	%rdx, %rdi	# _100, _1966
.LVL373:
.LBB5940:
.LBI5940:
	.loc 3 358 3 is_stmt 1 view .LVU1581
.LBB5941:
.LBI5941:
	.loc 3 178 3 view .LVU1582
.LBB5942:
.LBI5942:
	.loc 1 294 3 view .LVU1583
.LBB5943:
.LBI5943:
	.loc 1 182 3 view .LVU1584
	.loc 1 182 3 is_stmt 0 view .LVU1585
.LBE5943:
.LBE5942:
.LBE5941:
.LBE5940:
.LBE5944:
.LBE5946:
.LBE5949:
.LBE5966:
.LBB5967:
.LBI5956:
	.loc 3 259 13 is_stmt 1 view .LVU1586
.LBB5964:
.LBB5962:
.LBI5958:
	.loc 1 170 13 view .LVU1587
.LBB5960:
# /usr/include/boost/multi_array/base.hpp:177:     BOOST_ASSERT(idx - index_bases[0] >= 0);
	.loc 1 177 5 is_stmt 0 view .LVU1588
	subq	4312(%rbx), %rcx	# MEM[(const index *)myVars_278(D) + 4312B], _1935
	js	.L135	#,
# /usr/include/boost/multi_array/base.hpp:178:     BOOST_ASSERT(size_type(idx - index_bases[0]) < extents[0]);
	.loc 1 178 5 view .LVU1589
	cmpq	4280(%rbx), %rcx	# MEM[(const size_type *)myVars_278(D) + 4280B], _1935
	jnb	.L136	#,
.LVL374:
	.loc 1 178 5 view .LVU1590
.LBE5960:
.LBE5962:
.LBE5964:
.LBE5967:
# FI_Rate.cpp:239:     myVars->FI_VEL[myVars->FI_TIME_N - 1][1] = vA_d;
	.loc 27 239 46 view .LVU1591
	movsd	192(%rsp), %xmm3	# %sfp, vA_d
.LBB5968:
.LBB5965:
.LBB5963:
.LBB5961:
# /usr/include/boost/multi_array/base.hpp:179:     return *(base + idx * strides[0]);
	.loc 1 179 37 view .LVU1592
	addq	4296(%rbx), %rax	# MEM[(const index *)myVars_278(D) + 4296B], tmp865
	addq	%rdi, %rax	# _1966, tmp867
.LBE5961:
.LBE5963:
.LBE5965:
.LBE5968:
# FI_Rate.cpp:240:     myVars->FI_VEL[myVars->FI_TIME_N - 1][2] = vA_f;
	.loc 27 240 44 view .LVU1593
	leaq	528(%rsp), %rdi	#, tmp1280
# FI_Rate.cpp:239:     myVars->FI_VEL[myVars->FI_TIME_N - 1][1] = vA_d;
	.loc 27 239 46 view .LVU1594
	movsd	%xmm3, (%rsi,%rax,8)	# vA_d, *_1942
.LVL375:
.LBB5969:
.LBI5969:
	.loc 3 202 7 is_stmt 1 view .LVU1595
.LBB5970:
.LBI5970:
	.loc 3 39 7 view .LVU1596
.LBB5971:
.LBI5971:
	.loc 1 295 3 view .LVU1597
.LBB5972:
.LBI5972:
	.loc 1 183 3 view .LVU1598
	.loc 1 183 3 is_stmt 0 view .LVU1599
.LBE5972:
.LBE5971:
.LBE5970:
.LBE5969:
	.loc 27 240 5 is_stmt 1 view .LVU1600
# FI_Rate.cpp:240:     myVars->FI_VEL[myVars->FI_TIME_N - 1][2] = vA_f;
	.loc 27 240 44 is_stmt 0 view .LVU1601
	movq	%rbp, %rsi	# pretmp_1959,
	call	_ZN5boost15multi_array_refIdLm2EEixEl	#
.LVL376:
.LBB5973:
.LBI5973:
	.loc 3 259 13 is_stmt 1 view .LVU1602
.LBB5974:
# /usr/include/boost/multi_array/subarray.hpp:260:     return super_type::access(boost::type<reference>(),
	.loc 3 260 30 is_stmt 0 view .LVU1603
	movq	552(%rsp), %rdx	# MEM[(const index * *)&D.103569 + 24B], MEM[(const index * *)&D.103569 + 24B]
	movq	544(%rsp), %rsi	# MEM[(const index * *)&D.103569 + 16B], _994
.LVL377:
.LBB5975:
.LBB5976:
# /usr/include/boost/multi_array/base.hpp:177:     BOOST_ASSERT(idx - index_bases[0] >= 0);
	.loc 1 177 5 view .LVU1604
	movl	$2, %eax	#, tmp870
.LBE5976:
.LBE5975:
# /usr/include/boost/multi_array/subarray.hpp:260:     return super_type::access(boost::type<reference>(),
	.loc 3 260 30 view .LVU1605
	movq	536(%rsp), %rdi	# MEM[(const size_type * *)&D.103569 + 8B], _995
	.loc 3 260 30 view .LVU1606
	movq	528(%rsp), %rcx	# D.103569.D.103533.base_, _996
.LVL378:
.LBB5979:
.LBI5975:
	.loc 1 170 13 is_stmt 1 view .LVU1607
.LBB5977:
# /usr/include/boost/multi_array/base.hpp:177:     BOOST_ASSERT(idx - index_bases[0] >= 0);
	.loc 1 177 5 is_stmt 0 view .LVU1608
	subq	(%rdx), %rax	# MEM[(const index *)_993], _1926
	js	.L135	#,
# /usr/include/boost/multi_array/base.hpp:178:     BOOST_ASSERT(size_type(idx - index_bases[0]) < extents[0]);
	.loc 1 178 5 view .LVU1609
	cmpq	(%rdi), %rax	# MEM[(const size_type *)_995], _1926
	jnb	.L136	#,
.LVL379:
# /usr/include/boost/multi_array/base.hpp:179:     return *(base + idx * strides[0]);
	.loc 1 179 25 view .LVU1610
	movq	(%rsi), %rax	# MEM[(const index *)_994], MEM[(const index *)_994]
.LBE5977:
.LBE5979:
.LBE5974:
.LBE5973:
.LBB5982:
.LBB5983:
.LBB5984:
.LBB5985:
# /usr/include/boost/multi_array/multi_array_ref.hpp:504:   element* origin() { return super_type::base_+super_type::origin_offset_; }
	.loc 2 504 47 view .LVU1611
	movq	4320(%rbx), %r8	# MEM[(long int *)myVars_278(D) + 4320B], _1922
.LBE5985:
.LBE5984:
.LBE5983:
.LBE5982:
# FI_Rate.cpp:240:     myVars->FI_VEL[myVars->FI_TIME_N - 1][2] = vA_f;
	.loc 27 240 46 view .LVU1612
	movsd	200(%rsp), %xmm7	# %sfp, vA_f
.LBB5998:
.LBB5995:
# /usr/include/boost/multi_array/multi_array_ref.hpp:523:                               this->index_bases());
	.loc 2 523 50 view .LVU1613
	movq	4240(%rbx), %rsi	# MEM[(double * *)myVars_278(D) + 4240B], _1920
.LBE5995:
.LBE5998:
.LBB5999:
.LBB5981:
.LBB5980:
.LBB5978:
# /usr/include/boost/multi_array/base.hpp:179:     return *(base + idx * strides[0]);
	.loc 1 179 19 view .LVU1614
	addq	%rax, %rax	# tmp872
.LBE5978:
.LBE5980:
.LBE5981:
.LBE5999:
# FI_Rate.cpp:240:     myVars->FI_VEL[myVars->FI_TIME_N - 1][2] = vA_f;
	.loc 27 240 46 view .LVU1615
	movsd	%xmm7, (%rcx,%rax,8)	# vA_f, *_1933
.LVL380:
.LBB6000:
.LBI6000:
	.loc 3 202 7 is_stmt 1 view .LVU1616
.LBB6001:
.LBI6001:
	.loc 3 39 7 view .LVU1617
.LBB6002:
.LBI6002:
	.loc 1 295 3 view .LVU1618
.LBB6003:
.LBI6003:
	.loc 1 183 3 view .LVU1619
	.loc 1 183 3 is_stmt 0 view .LVU1620
.LBE6003:
.LBE6002:
.LBE6001:
.LBE6000:
	.loc 27 241 5 is_stmt 1 view .LVU1621
# FI_Rate.cpp:241:     myVars->FI_VEL[myVars->FI_TIME_N - 1][3] = vA_U;
	.loc 27 241 38 is_stmt 0 view .LVU1622
	movq	40(%rbx), %rax	# myVars_278(D)->FI_TIME_N, tmp1282
	leaq	-1(%rax), %rdx	#, _106
.LVL381:
.LBB6004:
.LBI5982:
	.loc 2 519 13 is_stmt 1 view .LVU1623
.LBB5996:
.LBB5986:
.LBI5984:
	.loc 2 504 12 view .LVU1624
	.loc 2 504 12 is_stmt 0 view .LVU1625
.LBE5986:
.LBB5987:
.LBI5987:
	.loc 1 130 13 is_stmt 1 view .LVU1626
.LBB5988:
# /usr/include/boost/multi_array/base.hpp:135:     BOOST_ASSERT(idx - index_bases[0] >= 0);
	.loc 1 135 5 is_stmt 0 view .LVU1627
	movq	%rdx, %rcx	# _106, _1973
	subq	4304(%rbx), %rcx	# MEM[(const index *)myVars_278(D) + 4304B], _1973
	js	.L137	#,
# /usr/include/boost/multi_array/base.hpp:136:     BOOST_ASSERT(size_type(idx - index_bases[0]) < extents[0]);
	.loc 1 136 5 view .LVU1628
	cmpq	4272(%rbx), %rcx	# MEM[(const size_type *)myVars_278(D) + 4272B], _1973
	jnb	.L138	#,
# /usr/include/boost/multi_array/base.hpp:138:     TPtr newbase = base + idx * strides[0];
	.loc 1 138 31 view .LVU1629
	movq	4288(%rbx), %rdi	# MEM[(const index *)myVars_278(D) + 4288B], _1978
.LBE5988:
.LBE5987:
.LBE5996:
.LBE6004:
.LBB6005:
.LBB6006:
.LBB6007:
.LBB6008:
# /usr/include/boost/multi_array/base.hpp:177:     BOOST_ASSERT(idx - index_bases[0] >= 0);
	.loc 1 177 5 view .LVU1630
	movl	$3, %ecx	#, tmp874
.LBE6008:
.LBE6007:
.LBE6006:
.LBE6005:
.LBB6015:
.LBB5997:
.LBB5994:
.LBB5993:
# /usr/include/boost/multi_array/base.hpp:138:     TPtr newbase = base + idx * strides[0];
	.loc 1 138 31 view .LVU1631
	imulq	%rdx, %rdi	# _106, _1978
.LVL382:
.LBB5989:
.LBI5989:
	.loc 3 358 3 is_stmt 1 view .LVU1632
.LBB5990:
.LBI5990:
	.loc 3 178 3 view .LVU1633
.LBB5991:
.LBI5991:
	.loc 1 294 3 view .LVU1634
.LBB5992:
.LBI5992:
	.loc 1 182 3 view .LVU1635
	.loc 1 182 3 is_stmt 0 view .LVU1636
.LBE5992:
.LBE5991:
.LBE5990:
.LBE5989:
.LBE5993:
.LBE5994:
.LBE5997:
.LBE6015:
.LBB6016:
.LBI6005:
	.loc 3 259 13 is_stmt 1 view .LVU1637
.LBB6013:
.LBB6011:
.LBI6007:
	.loc 1 170 13 view .LVU1638
.LBB6009:
# /usr/include/boost/multi_array/base.hpp:177:     BOOST_ASSERT(idx - index_bases[0] >= 0);
	.loc 1 177 5 is_stmt 0 view .LVU1639
	subq	4312(%rbx), %rcx	# MEM[(const index *)myVars_278(D) + 4312B], _1909
	js	.L135	#,
# /usr/include/boost/multi_array/base.hpp:178:     BOOST_ASSERT(size_type(idx - index_bases[0]) < extents[0]);
	.loc 1 178 5 view .LVU1640
	cmpq	4280(%rbx), %rcx	# MEM[(const size_type *)myVars_278(D) + 4280B], _1909
	jnb	.L136	#,
.LVL383:
# /usr/include/boost/multi_array/base.hpp:179:     return *(base + idx * strides[0]);
	.loc 1 179 25 view .LVU1641
	movq	4296(%rbx), %rcx	# MEM[(const index *)myVars_278(D) + 4296B], MEM[(const index *)myVars_278(D) + 4296B]
.LBE6009:
.LBE6011:
.LBE6013:
.LBE6016:
# FI_Rate.cpp:241:     myVars->FI_VEL[myVars->FI_TIME_N - 1][3] = vA_U;
	.loc 27 241 46 view .LVU1642
	movsd	48(%rsp), %xmm5	# %sfp, vA_U
.LBB6017:
.LBB6014:
.LBB6012:
.LBB6010:
# /usr/include/boost/multi_array/base.hpp:179:     return *(base + idx * strides[0]);
	.loc 1 179 37 view .LVU1643
	leaq	(%rcx,%rcx,2), %rax	#, tmp878
	addq	%r8, %rax	# _1922, tmp879
	addq	%rdi, %rax	# _1978, tmp880
.LBE6010:
.LBE6012:
.LBE6014:
.LBE6017:
# FI_Rate.cpp:242:     myVars->FI_VEL[myVars->FI_TIME_N - 1][4] = vU_A;
	.loc 27 242 44 view .LVU1644
	leaq	560(%rsp), %rdi	#, tmp1286
# FI_Rate.cpp:241:     myVars->FI_VEL[myVars->FI_TIME_N - 1][3] = vA_U;
	.loc 27 241 46 view .LVU1645
	movsd	%xmm5, (%rsi,%rax,8)	# vA_U, *_1916
.LVL384:
.LBB6018:
.LBI6018:
	.loc 3 202 7 is_stmt 1 view .LVU1646
.LBB6019:
.LBI6019:
	.loc 3 39 7 view .LVU1647
.LBB6020:
.LBI6020:
	.loc 1 295 3 view .LVU1648
.LBB6021:
.LBI6021:
	.loc 1 183 3 view .LVU1649
	.loc 1 183 3 is_stmt 0 view .LVU1650
.LBE6021:
.LBE6020:
.LBE6019:
.LBE6018:
	.loc 27 242 5 is_stmt 1 view .LVU1651
# FI_Rate.cpp:242:     myVars->FI_VEL[myVars->FI_TIME_N - 1][4] = vU_A;
	.loc 27 242 44 is_stmt 0 view .LVU1652
	movq	%rbp, %rsi	# pretmp_1959,
	call	_ZN5boost15multi_array_refIdLm2EEixEl	#
.LVL385:
.LBB6022:
.LBI6022:
	.loc 3 259 13 is_stmt 1 view .LVU1653
.LBB6023:
# /usr/include/boost/multi_array/subarray.hpp:260:     return super_type::access(boost::type<reference>(),
	.loc 3 260 30 is_stmt 0 view .LVU1654
	movq	584(%rsp), %rdx	# MEM[(const index * *)&D.103571 + 24B], MEM[(const index * *)&D.103571 + 24B]
	movq	576(%rsp), %rsi	# MEM[(const index * *)&D.103571 + 16B], _982
.LVL386:
.LBB6024:
.LBB6025:
# /usr/include/boost/multi_array/base.hpp:177:     BOOST_ASSERT(idx - index_bases[0] >= 0);
	.loc 1 177 5 view .LVU1655
	movl	$4, %eax	#, tmp883
.LBE6025:
.LBE6024:
# /usr/include/boost/multi_array/subarray.hpp:260:     return super_type::access(boost::type<reference>(),
	.loc 3 260 30 view .LVU1656
	movq	568(%rsp), %rdi	# MEM[(const size_type * *)&D.103571 + 8B], _983
	.loc 3 260 30 view .LVU1657
	movq	560(%rsp), %rcx	# D.103571.D.103533.base_, _984
.LVL387:
.LBB6028:
.LBI6024:
	.loc 1 170 13 is_stmt 1 view .LVU1658
.LBB6026:
# /usr/include/boost/multi_array/base.hpp:177:     BOOST_ASSERT(idx - index_bases[0] >= 0);
	.loc 1 177 5 is_stmt 0 view .LVU1659
	subq	(%rdx), %rax	# MEM[(const index *)_981], _1900
	js	.L135	#,
# /usr/include/boost/multi_array/base.hpp:178:     BOOST_ASSERT(size_type(idx - index_bases[0]) < extents[0]);
	.loc 1 178 5 view .LVU1660
	cmpq	(%rdi), %rax	# MEM[(const size_type *)_983], _1900
	jnb	.L136	#,
.LVL388:
# /usr/include/boost/multi_array/base.hpp:179:     return *(base + idx * strides[0]);
	.loc 1 179 25 view .LVU1661
	movq	(%rsi), %rax	# MEM[(const index *)_982], MEM[(const index *)_982]
.LBE6026:
.LBE6028:
.LBE6023:
.LBE6022:
# FI_Rate.cpp:242:     myVars->FI_VEL[myVars->FI_TIME_N - 1][4] = vU_A;
	.loc 27 242 46 view .LVU1662
	movsd	56(%rsp), %xmm6	# %sfp, vU_A
.LBB6031:
.LBB6032:
# /usr/include/boost/multi_array/multi_array_ref.hpp:523:                               this->index_bases());
	.loc 2 523 50 view .LVU1663
	movq	4240(%rbx), %r9	# MEM[(double * *)myVars_278(D) + 4240B], _1894
.LBB6033:
.LBB6034:
# /usr/include/boost/multi_array/multi_array_ref.hpp:504:   element* origin() { return super_type::base_+super_type::origin_offset_; }
	.loc 2 504 47 view .LVU1664
	movq	4320(%rbx), %rsi	# MEM[(long int *)myVars_278(D) + 4320B], _1896
.LBE6034:
.LBE6033:
.LBE6032:
.LBE6031:
.LBB6046:
.LBB6030:
.LBB6029:
.LBB6027:
# /usr/include/boost/multi_array/base.hpp:179:     return *(base + idx * strides[0]);
	.loc 1 179 19 view .LVU1665
	salq	$2, %rax	#, tmp885
.LBE6027:
.LBE6029:
.LBE6030:
.LBE6046:
# FI_Rate.cpp:242:     myVars->FI_VEL[myVars->FI_TIME_N - 1][4] = vU_A;
	.loc 27 242 46 view .LVU1666
	movsd	%xmm6, (%rcx,%rax,8)	# vU_A, *_1907
.LVL389:
.LBB6047:
.LBI6047:
	.loc 3 202 7 is_stmt 1 view .LVU1667
.LBB6048:
.LBI6048:
	.loc 3 39 7 view .LVU1668
.LBB6049:
.LBI6049:
	.loc 1 295 3 view .LVU1669
.LBB6050:
.LBI6050:
	.loc 1 183 3 view .LVU1670
	.loc 1 183 3 is_stmt 0 view .LVU1671
.LBE6050:
.LBE6049:
.LBE6048:
.LBE6047:
	.loc 27 243 5 is_stmt 1 view .LVU1672
# FI_Rate.cpp:243:     myVars->FI_VEL[myVars->FI_TIME_N - 1][5] = vU_f;
	.loc 27 243 38 is_stmt 0 view .LVU1673
	movq	40(%rbx), %rax	# myVars_278(D)->FI_TIME_N, tmp1288
	leaq	-1(%rax), %r8	#, _112
.LVL390:
.LBB6051:
.LBI6031:
	.loc 2 519 13 is_stmt 1 view .LVU1674
.LBB6044:
.LBB6035:
.LBI6033:
	.loc 2 504 12 view .LVU1675
	.loc 2 504 12 is_stmt 0 view .LVU1676
.LBE6035:
.LBB6036:
.LBI6036:
	.loc 1 130 13 is_stmt 1 view .LVU1677
.LBB6037:
# /usr/include/boost/multi_array/base.hpp:135:     BOOST_ASSERT(idx - index_bases[0] >= 0);
	.loc 1 135 5 is_stmt 0 view .LVU1678
	movq	%r8, %rax	# _112, _1985
	subq	4304(%rbx), %rax	# MEM[(const index *)myVars_278(D) + 4304B], _1985
	js	.L137	#,
# /usr/include/boost/multi_array/base.hpp:136:     BOOST_ASSERT(size_type(idx - index_bases[0]) < extents[0]);
	.loc 1 136 5 view .LVU1679
	cmpq	4272(%rbx), %rax	# MEM[(const size_type *)myVars_278(D) + 4272B], _1985
	jnb	.L138	#,
# /usr/include/boost/multi_array/base.hpp:138:     TPtr newbase = base + idx * strides[0];
	.loc 1 138 31 view .LVU1680
	movq	4288(%rbx), %rax	# MEM[(const index *)myVars_278(D) + 4288B], tmp887
.LBE6037:
.LBE6036:
.LBE6044:
.LBE6051:
.LBB6052:
.LBB6053:
# /usr/include/boost/multi_array/subarray.hpp:260:     return super_type::access(boost::type<reference>(),
	.loc 3 260 30 view .LVU1681
	movq	4312(%rbx), %rdx	# MEM[(const index *)myVars_278(D) + 4312B], _979
.LVL391:
	.loc 3 260 30 view .LVU1682
.LBE6053:
.LBE6052:
.LBB6063:
.LBB6045:
.LBB6043:
.LBB6042:
# /usr/include/boost/multi_array/base.hpp:138:     TPtr newbase = base + idx * strides[0];
	.loc 1 138 31 view .LVU1683
	imulq	%r8, %rax	# _112, tmp887
	addq	%rax, %rsi	# tmp887, _1044
.LVL392:
.LBB6038:
.LBI6038:
	.loc 3 358 3 is_stmt 1 view .LVU1684
.LBB6039:
.LBI6039:
	.loc 3 178 3 view .LVU1685
.LBB6040:
.LBI6040:
	.loc 1 294 3 view .LVU1686
.LBB6041:
.LBI6041:
	.loc 1 182 3 view .LVU1687
	.loc 1 182 3 is_stmt 0 view .LVU1688
.LBE6041:
.LBE6040:
.LBE6039:
.LBE6038:
.LBE6042:
.LBE6043:
.LBE6045:
.LBE6063:
.LBB6064:
.LBI6052:
	.loc 3 259 13 is_stmt 1 view .LVU1689
.LBB6060:
.LBB6054:
.LBI6054:
	.loc 1 170 13 view .LVU1690
.LBB6055:
# /usr/include/boost/multi_array/base.hpp:177:     BOOST_ASSERT(idx - index_bases[0] >= 0);
	.loc 1 177 5 is_stmt 0 view .LVU1691
	movl	$5, %eax	#, tmp888
	subq	%rdx, %rax	# _979, _1883
	js	.L135	#,
# /usr/include/boost/multi_array/base.hpp:178:     BOOST_ASSERT(size_type(idx - index_bases[0]) < extents[0]);
	.loc 1 178 5 view .LVU1692
	movq	4280(%rbx), %rcx	# MEM[(const size_type *)myVars_278(D) + 4280B], _1885
	cmpq	%rcx, %rax	# _1885, _1883
	jnb	.L136	#,
# /usr/include/boost/multi_array/base.hpp:179:     return *(base + idx * strides[0]);
	.loc 1 179 25 view .LVU1693
	movq	4296(%rbx), %rdi	# MEM[(const index *)myVars_278(D) + 4296B], _1886
.LBE6055:
.LBE6054:
.LBE6060:
.LBE6064:
# FI_Rate.cpp:243:     myVars->FI_VEL[myVars->FI_TIME_N - 1][5] = vU_f;
	.loc 27 243 46 view .LVU1694
	movsd	64(%rsp), %xmm2	# %sfp, vU_f
.LBB6065:
.LBB6061:
.LBB6058:
.LBB6056:
# /usr/include/boost/multi_array/base.hpp:179:     return *(base + idx * strides[0]);
	.loc 1 179 25 view .LVU1695
	leaq	(%rdi,%rdi,4), %rax	#, tmp891
# /usr/include/boost/multi_array/base.hpp:179:     return *(base + idx * strides[0]);
	.loc 1 179 37 view .LVU1696
	addq	%rsi, %rax	# _1044, tmp892
.LBE6056:
.LBE6058:
.LBE6061:
.LBE6065:
.LBB6066:
.LBB6067:
.LBB6068:
# /usr/include/boost/multi_array/base.hpp:177:     BOOST_ASSERT(idx - index_bases[0] >= 0);
	.loc 1 177 5 view .LVU1697
	movl	$6, %esi	#, tmp894
.LVL393:
	.loc 1 177 5 view .LVU1698
.LBE6068:
.LBE6067:
.LBE6066:
.LBB6075:
.LBB6062:
.LBB6059:
.LBB6057:
# /usr/include/boost/multi_array/base.hpp:179:     return *(base + idx * strides[0]);
	.loc 1 179 37 view .LVU1699
	leaq	(%r9,%rax,8), %rax	#, _1890
.LVL394:
	.loc 1 179 37 view .LVU1700
.LBE6057:
.LBE6059:
.LBE6062:
.LBE6075:
# FI_Rate.cpp:243:     myVars->FI_VEL[myVars->FI_TIME_N - 1][5] = vU_f;
	.loc 27 243 46 view .LVU1701
	movsd	%xmm2, (%rax)	# vU_f, *_1890
.LVL395:
.LBB6076:
.LBI6076:
	.loc 3 202 7 is_stmt 1 view .LVU1702
.LBB6077:
.LBI6077:
	.loc 3 39 7 view .LVU1703
.LBB6078:
.LBI6078:
	.loc 1 295 3 view .LVU1704
.LBB6079:
.LBI6079:
	.loc 1 183 3 view .LVU1705
	.loc 1 183 3 is_stmt 0 view .LVU1706
.LBE6079:
.LBE6078:
.LBE6077:
.LBE6076:
	.loc 27 244 5 is_stmt 1 view .LVU1707
.LBB6080:
.LBI6080:
	.loc 2 519 13 view .LVU1708
.LBB6081:
.LBI6081:
	.loc 1 130 13 view .LVU1709
.LBB6082:
.LBB6083:
.LBI6083:
	.loc 3 358 3 view .LVU1710
.LBB6084:
.LBI6084:
	.loc 3 178 3 view .LVU1711
.LBB6085:
.LBI6085:
	.loc 1 294 3 view .LVU1712
.LBB6086:
.LBI6086:
	.loc 1 182 3 view .LVU1713
	.loc 1 182 3 is_stmt 0 view .LVU1714
.LBE6086:
.LBE6085:
.LBE6084:
.LBE6083:
.LBE6082:
.LBE6081:
.LBE6080:
.LBB6087:
.LBI6066:
	.loc 3 259 13 is_stmt 1 view .LVU1715
.LBB6072:
.LBI6067:
	.loc 1 170 13 view .LVU1716
.LBB6069:
# /usr/include/boost/multi_array/base.hpp:177:     BOOST_ASSERT(idx - index_bases[0] >= 0);
	.loc 1 177 5 is_stmt 0 view .LVU1717
	subq	%rdx, %rsi	# _979, _1866
	js	.L135	#,
# /usr/include/boost/multi_array/base.hpp:178:     BOOST_ASSERT(size_type(idx - index_bases[0]) < extents[0]);
	.loc 1 178 5 view .LVU1718
	cmpq	%rcx, %rsi	# _1885, _1866
	jnb	.L136	#,
.LBE6069:
.LBE6072:
.LBE6087:
# FI_Rate.cpp:244:     myVars->FI_VEL[myVars->FI_TIME_N - 1][6] = vU_d;
	.loc 27 244 46 view .LVU1719
	movsd	208(%rsp), %xmm4	# %sfp, vU_d
.LBB6088:
.LBB6073:
.LBB6070:
# /usr/include/boost/multi_array/base.hpp:179:     return *(base + idx * strides[0]);
	.loc 1 179 37 view .LVU1720
	leaq	0(,%rdi,8), %rsi	#, slsr_1070
.LBE6070:
.LBE6073:
.LBE6088:
.LBB6089:
.LBB6090:
.LBB6091:
# /usr/include/boost/multi_array/base.hpp:177:     BOOST_ASSERT(idx - index_bases[0] >= 0);
	.loc 1 177 5 view .LVU1721
	movl	$7, %r9d	#, tmp895
.LVL396:
	.loc 1 177 5 view .LVU1722
.LBE6091:
.LBE6090:
.LBE6089:
.LBB6096:
.LBB6074:
.LBB6071:
# /usr/include/boost/multi_array/base.hpp:179:     return *(base + idx * strides[0]);
	.loc 1 179 37 view .LVU1723
	addq	%rsi, %rax	# slsr_1070, _1873
.LVL397:
	.loc 1 179 37 view .LVU1724
.LBE6071:
.LBE6074:
.LBE6096:
# FI_Rate.cpp:244:     myVars->FI_VEL[myVars->FI_TIME_N - 1][6] = vU_d;
	.loc 27 244 46 view .LVU1725
	movsd	%xmm4, (%rax)	# vU_d, *_1873
.LVL398:
.LBB6097:
.LBI6097:
	.loc 3 202 7 is_stmt 1 view .LVU1726
.LBB6098:
.LBI6098:
	.loc 3 39 7 view .LVU1727
.LBB6099:
.LBI6099:
	.loc 1 295 3 view .LVU1728
.LBB6100:
.LBI6100:
	.loc 1 183 3 view .LVU1729
	.loc 1 183 3 is_stmt 0 view .LVU1730
.LBE6100:
.LBE6099:
.LBE6098:
.LBE6097:
	.loc 27 245 5 is_stmt 1 view .LVU1731
.LBB6101:
.LBI6101:
	.loc 2 519 13 view .LVU1732
.LBB6102:
.LBI6102:
	.loc 1 130 13 view .LVU1733
.LBB6103:
.LBB6104:
.LBI6104:
	.loc 3 358 3 view .LVU1734
.LBB6105:
.LBI6105:
	.loc 3 178 3 view .LVU1735
.LBB6106:
.LBI6106:
	.loc 1 294 3 view .LVU1736
.LBB6107:
.LBI6107:
	.loc 1 182 3 view .LVU1737
	.loc 1 182 3 is_stmt 0 view .LVU1738
.LBE6107:
.LBE6106:
.LBE6105:
.LBE6104:
.LBE6103:
.LBE6102:
.LBE6101:
.LBB6108:
.LBI6089:
	.loc 3 259 13 is_stmt 1 view .LVU1739
.LBB6094:
.LBI6090:
	.loc 1 170 13 view .LVU1740
.LBB6092:
# /usr/include/boost/multi_array/base.hpp:177:     BOOST_ASSERT(idx - index_bases[0] >= 0);
	.loc 1 177 5 is_stmt 0 view .LVU1741
	subq	%rdx, %r9	# _979, _1849
	js	.L135	#,
# /usr/include/boost/multi_array/base.hpp:178:     BOOST_ASSERT(size_type(idx - index_bases[0]) < extents[0]);
	.loc 1 178 5 view .LVU1742
	cmpq	%rcx, %r9	# _1885, _1849
	jnb	.L136	#,
.LBE6092:
.LBE6094:
.LBE6108:
# FI_Rate.cpp:245:     myVars->FI_VEL[myVars->FI_TIME_N - 1][7] = v1;
	.loc 27 245 46 view .LVU1743
	movsd	216(%rsp), %xmm1	# %sfp, v1
.LBB6109:
.LBB6095:
.LBB6093:
# /usr/include/boost/multi_array/base.hpp:179:     return *(base + idx * strides[0]);
	.loc 1 179 37 view .LVU1744
	addq	%rsi, %rax	# slsr_1070, _1856
.LVL399:
	.loc 1 179 37 view .LVU1745
.LBE6093:
.LBE6095:
.LBE6109:
.LBB6110:
.LBB6111:
.LBB6112:
# /usr/include/boost/multi_array/base.hpp:177:     BOOST_ASSERT(idx - index_bases[0] >= 0);
	.loc 1 177 5 view .LVU1746
	movl	$8, %r9d	#, tmp896
.LBE6112:
.LBE6111:
.LBE6110:
# FI_Rate.cpp:245:     myVars->FI_VEL[myVars->FI_TIME_N - 1][7] = v1;
	.loc 27 245 46 view .LVU1747
	movsd	%xmm1, (%rax)	# v1, *_1856
.LVL400:
.LBB6117:
.LBI6117:
	.loc 3 202 7 is_stmt 1 view .LVU1748
.LBB6118:
.LBI6118:
	.loc 3 39 7 view .LVU1749
.LBB6119:
.LBI6119:
	.loc 1 295 3 view .LVU1750
.LBB6120:
.LBI6120:
	.loc 1 183 3 view .LVU1751
	.loc 1 183 3 is_stmt 0 view .LVU1752
.LBE6120:
.LBE6119:
.LBE6118:
.LBE6117:
	.loc 27 246 5 is_stmt 1 view .LVU1753
.LBB6121:
.LBI6121:
	.loc 2 519 13 view .LVU1754
.LBB6122:
.LBI6122:
	.loc 1 130 13 view .LVU1755
.LBB6123:
.LBB6124:
.LBI6124:
	.loc 3 358 3 view .LVU1756
.LBB6125:
.LBI6125:
	.loc 3 178 3 view .LVU1757
.LBB6126:
.LBI6126:
	.loc 1 294 3 view .LVU1758
.LBB6127:
.LBI6127:
	.loc 1 182 3 view .LVU1759
	.loc 1 182 3 is_stmt 0 view .LVU1760
.LBE6127:
.LBE6126:
.LBE6125:
.LBE6124:
.LBE6123:
.LBE6122:
.LBE6121:
.LBB6128:
.LBI6110:
	.loc 3 259 13 is_stmt 1 view .LVU1761
.LBB6115:
.LBI6111:
	.loc 1 170 13 view .LVU1762
.LBB6113:
# /usr/include/boost/multi_array/base.hpp:177:     BOOST_ASSERT(idx - index_bases[0] >= 0);
	.loc 1 177 5 is_stmt 0 view .LVU1763
	subq	%rdx, %r9	# _979, _1832
	js	.L135	#,
# /usr/include/boost/multi_array/base.hpp:178:     BOOST_ASSERT(size_type(idx - index_bases[0]) < extents[0]);
	.loc 1 178 5 view .LVU1764
	cmpq	%rcx, %r9	# _1885, _1832
	jnb	.L136	#,
.LBE6113:
.LBE6115:
.LBE6128:
# FI_Rate.cpp:246:     myVars->FI_VEL[myVars->FI_TIME_N - 1][8] = v_r1;
	.loc 27 246 46 view .LVU1765
	movsd	224(%rsp), %xmm0	# %sfp, v_r1
.LBB6129:
.LBB6116:
.LBB6114:
# /usr/include/boost/multi_array/base.hpp:179:     return *(base + idx * strides[0]);
	.loc 1 179 37 view .LVU1766
	addq	%rsi, %rax	# slsr_1070, _1839
.LVL401:
	.loc 1 179 37 view .LVU1767
.LBE6114:
.LBE6116:
.LBE6129:
.LBB6130:
.LBB6131:
.LBB6132:
# /usr/include/boost/multi_array/base.hpp:177:     BOOST_ASSERT(idx - index_bases[0] >= 0);
	.loc 1 177 5 view .LVU1768
	movl	$9, %r9d	#, tmp897
.LBE6132:
.LBE6131:
.LBE6130:
# FI_Rate.cpp:246:     myVars->FI_VEL[myVars->FI_TIME_N - 1][8] = v_r1;
	.loc 27 246 46 view .LVU1769
	movsd	%xmm0, (%rax)	# v_r1, *_1839
.LVL402:
.LBB6137:
.LBI6137:
	.loc 3 202 7 is_stmt 1 view .LVU1770
.LBB6138:
.LBI6138:
	.loc 3 39 7 view .LVU1771
.LBB6139:
.LBI6139:
	.loc 1 295 3 view .LVU1772
.LBB6140:
.LBI6140:
	.loc 1 183 3 view .LVU1773
	.loc 1 183 3 is_stmt 0 view .LVU1774
.LBE6140:
.LBE6139:
.LBE6138:
.LBE6137:
	.loc 27 247 5 is_stmt 1 view .LVU1775
.LBB6141:
.LBI6141:
	.loc 2 519 13 view .LVU1776
.LBB6142:
.LBI6142:
	.loc 1 130 13 view .LVU1777
.LBB6143:
.LBB6144:
.LBI6144:
	.loc 3 358 3 view .LVU1778
.LBB6145:
.LBI6145:
	.loc 3 178 3 view .LVU1779
.LBB6146:
.LBI6146:
	.loc 1 294 3 view .LVU1780
.LBB6147:
.LBI6147:
	.loc 1 182 3 view .LVU1781
	.loc 1 182 3 is_stmt 0 view .LVU1782
.LBE6147:
.LBE6146:
.LBE6145:
.LBE6144:
.LBE6143:
.LBE6142:
.LBE6141:
.LBB6148:
.LBI6130:
	.loc 3 259 13 is_stmt 1 view .LVU1783
.LBB6135:
.LBI6131:
	.loc 1 170 13 view .LVU1784
.LBB6133:
# /usr/include/boost/multi_array/base.hpp:177:     BOOST_ASSERT(idx - index_bases[0] >= 0);
	.loc 1 177 5 is_stmt 0 view .LVU1785
	subq	%rdx, %r9	# _979, _1815
	js	.L135	#,
# /usr/include/boost/multi_array/base.hpp:178:     BOOST_ASSERT(size_type(idx - index_bases[0]) < extents[0]);
	.loc 1 178 5 view .LVU1786
	cmpq	%rcx, %r9	# _1885, _1815
	jnb	.L136	#,
.LBE6133:
.LBE6135:
.LBE6148:
# FI_Rate.cpp:247:     myVars->FI_VEL[myVars->FI_TIME_N - 1][9] = vS1_S2;
	.loc 27 247 46 view .LVU1787
	movsd	232(%rsp), %xmm15	# %sfp, vS1_S2
.LBB6149:
.LBB6136:
.LBB6134:
# /usr/include/boost/multi_array/base.hpp:179:     return *(base + idx * strides[0]);
	.loc 1 179 37 view .LVU1788
	addq	%rsi, %rax	# slsr_1070, _1822
.LVL403:
	.loc 1 179 37 view .LVU1789
.LBE6134:
.LBE6136:
.LBE6149:
.LBB6150:
.LBB6151:
.LBB6152:
# /usr/include/boost/multi_array/base.hpp:177:     BOOST_ASSERT(idx - index_bases[0] >= 0);
	.loc 1 177 5 view .LVU1790
	movl	$10, %r9d	#, tmp898
.LBE6152:
.LBE6151:
.LBE6150:
# FI_Rate.cpp:247:     myVars->FI_VEL[myVars->FI_TIME_N - 1][9] = vS1_S2;
	.loc 27 247 46 view .LVU1791
	movsd	%xmm15, (%rax)	# vS1_S2, *_1822
.LVL404:
.LBB6157:
.LBI6157:
	.loc 3 202 7 is_stmt 1 view .LVU1792
.LBB6158:
.LBI6158:
	.loc 3 39 7 view .LVU1793
.LBB6159:
.LBI6159:
	.loc 1 295 3 view .LVU1794
.LBB6160:
.LBI6160:
	.loc 1 183 3 view .LVU1795
	.loc 1 183 3 is_stmt 0 view .LVU1796
.LBE6160:
.LBE6159:
.LBE6158:
.LBE6157:
	.loc 27 248 5 is_stmt 1 view .LVU1797
.LBB6161:
.LBI6161:
	.loc 2 519 13 view .LVU1798
.LBB6162:
.LBI6162:
	.loc 1 130 13 view .LVU1799
.LBB6163:
.LBB6164:
.LBI6164:
	.loc 3 358 3 view .LVU1800
.LBB6165:
.LBI6165:
	.loc 3 178 3 view .LVU1801
.LBB6166:
.LBI6166:
	.loc 1 294 3 view .LVU1802
.LBB6167:
.LBI6167:
	.loc 1 182 3 view .LVU1803
	.loc 1 182 3 is_stmt 0 view .LVU1804
.LBE6167:
.LBE6166:
.LBE6165:
.LBE6164:
.LBE6163:
.LBE6162:
.LBE6161:
.LBB6168:
.LBI6150:
	.loc 3 259 13 is_stmt 1 view .LVU1805
.LBB6155:
.LBI6151:
	.loc 1 170 13 view .LVU1806
.LBB6153:
# /usr/include/boost/multi_array/base.hpp:177:     BOOST_ASSERT(idx - index_bases[0] >= 0);
	.loc 1 177 5 is_stmt 0 view .LVU1807
	subq	%rdx, %r9	# _979, _1798
	js	.L135	#,
# /usr/include/boost/multi_array/base.hpp:178:     BOOST_ASSERT(size_type(idx - index_bases[0]) < extents[0]);
	.loc 1 178 5 view .LVU1808
	cmpq	%rcx, %r9	# _1885, _1798
	jnb	.L136	#,
.LBE6153:
.LBE6155:
.LBE6168:
# FI_Rate.cpp:248:     myVars->FI_VEL[myVars->FI_TIME_N - 1][10] = vS2_S3;
	.loc 27 248 47 view .LVU1809
	movsd	240(%rsp), %xmm9	# %sfp, vS2_S3
.LBB6169:
.LBB6156:
.LBB6154:
# /usr/include/boost/multi_array/base.hpp:179:     return *(base + idx * strides[0]);
	.loc 1 179 37 view .LVU1810
	addq	%rsi, %rax	# slsr_1070, _1805
.LVL405:
	.loc 1 179 37 view .LVU1811
.LBE6154:
.LBE6156:
.LBE6169:
.LBB6170:
.LBB6171:
.LBB6172:
# /usr/include/boost/multi_array/base.hpp:177:     BOOST_ASSERT(idx - index_bases[0] >= 0);
	.loc 1 177 5 view .LVU1812
	movl	$11, %r9d	#, tmp899
.LBE6172:
.LBE6171:
.LBE6170:
# FI_Rate.cpp:248:     myVars->FI_VEL[myVars->FI_TIME_N - 1][10] = vS2_S3;
	.loc 27 248 47 view .LVU1813
	movsd	%xmm9, (%rax)	# vS2_S3, *_1805
.LVL406:
.LBB6177:
.LBI6177:
	.loc 3 202 7 is_stmt 1 view .LVU1814
.LBB6178:
.LBI6178:
	.loc 3 39 7 view .LVU1815
.LBB6179:
.LBI6179:
	.loc 1 295 3 view .LVU1816
.LBB6180:
.LBI6180:
	.loc 1 183 3 view .LVU1817
	.loc 1 183 3 is_stmt 0 view .LVU1818
.LBE6180:
.LBE6179:
.LBE6178:
.LBE6177:
	.loc 27 249 5 is_stmt 1 view .LVU1819
.LBB6181:
.LBI6181:
	.loc 2 519 13 view .LVU1820
.LBB6182:
.LBI6182:
	.loc 1 130 13 view .LVU1821
.LBB6183:
.LBB6184:
.LBI6184:
	.loc 3 358 3 view .LVU1822
.LBB6185:
.LBI6185:
	.loc 3 178 3 view .LVU1823
.LBB6186:
.LBI6186:
	.loc 1 294 3 view .LVU1824
.LBB6187:
.LBI6187:
	.loc 1 182 3 view .LVU1825
	.loc 1 182 3 is_stmt 0 view .LVU1826
.LBE6187:
.LBE6186:
.LBE6185:
.LBE6184:
.LBE6183:
.LBE6182:
.LBE6181:
.LBB6188:
.LBI6170:
	.loc 3 259 13 is_stmt 1 view .LVU1827
.LBB6175:
.LBI6171:
	.loc 1 170 13 view .LVU1828
.LBB6173:
# /usr/include/boost/multi_array/base.hpp:177:     BOOST_ASSERT(idx - index_bases[0] >= 0);
	.loc 1 177 5 is_stmt 0 view .LVU1829
	subq	%rdx, %r9	# _979, _1781
	js	.L135	#,
# /usr/include/boost/multi_array/base.hpp:178:     BOOST_ASSERT(size_type(idx - index_bases[0]) < extents[0]);
	.loc 1 178 5 view .LVU1830
	cmpq	%rcx, %r9	# _1885, _1781
	jnb	.L136	#,
.LBE6173:
.LBE6175:
.LBE6188:
# FI_Rate.cpp:249:     myVars->FI_VEL[myVars->FI_TIME_N - 1][11] = vS3_S0;
	.loc 27 249 47 view .LVU1831
	movsd	248(%rsp), %xmm10	# %sfp, vS3_S0
.LBB6189:
.LBB6176:
.LBB6174:
# /usr/include/boost/multi_array/base.hpp:179:     return *(base + idx * strides[0]);
	.loc 1 179 37 view .LVU1832
	addq	%rsi, %rax	# slsr_1070, _1788
.LVL407:
	.loc 1 179 37 view .LVU1833
.LBE6174:
.LBE6176:
.LBE6189:
.LBB6190:
.LBB6191:
.LBB6192:
# /usr/include/boost/multi_array/base.hpp:177:     BOOST_ASSERT(idx - index_bases[0] >= 0);
	.loc 1 177 5 view .LVU1834
	movl	$12, %r9d	#, tmp900
.LBE6192:
.LBE6191:
.LBE6190:
# FI_Rate.cpp:249:     myVars->FI_VEL[myVars->FI_TIME_N - 1][11] = vS3_S0;
	.loc 27 249 47 view .LVU1835
	movsd	%xmm10, (%rax)	# vS3_S0, *_1788
.LVL408:
.LBB6197:
.LBI6197:
	.loc 3 202 7 is_stmt 1 view .LVU1836
.LBB6198:
.LBI6198:
	.loc 3 39 7 view .LVU1837
.LBB6199:
.LBI6199:
	.loc 1 295 3 view .LVU1838
.LBB6200:
.LBI6200:
	.loc 1 183 3 view .LVU1839
	.loc 1 183 3 is_stmt 0 view .LVU1840
.LBE6200:
.LBE6199:
.LBE6198:
.LBE6197:
	.loc 27 250 5 is_stmt 1 view .LVU1841
.LBB6201:
.LBI6201:
	.loc 2 519 13 view .LVU1842
.LBB6202:
.LBI6202:
	.loc 1 130 13 view .LVU1843
.LBB6203:
.LBB6204:
.LBI6204:
	.loc 3 358 3 view .LVU1844
.LBB6205:
.LBI6205:
	.loc 3 178 3 view .LVU1845
.LBB6206:
.LBI6206:
	.loc 1 294 3 view .LVU1846
.LBB6207:
.LBI6207:
	.loc 1 182 3 view .LVU1847
	.loc 1 182 3 is_stmt 0 view .LVU1848
.LBE6207:
.LBE6206:
.LBE6205:
.LBE6204:
.LBE6203:
.LBE6202:
.LBE6201:
.LBB6208:
.LBI6190:
	.loc 3 259 13 is_stmt 1 view .LVU1849
.LBB6195:
.LBI6191:
	.loc 1 170 13 view .LVU1850
.LBB6193:
# /usr/include/boost/multi_array/base.hpp:177:     BOOST_ASSERT(idx - index_bases[0] >= 0);
	.loc 1 177 5 is_stmt 0 view .LVU1851
	subq	%rdx, %r9	# _979, _1764
	js	.L135	#,
# /usr/include/boost/multi_array/base.hpp:178:     BOOST_ASSERT(size_type(idx - index_bases[0]) < extents[0]);
	.loc 1 178 5 view .LVU1852
	cmpq	%rcx, %r9	# _1885, _1764
	jnb	.L136	#,
.LBE6193:
.LBE6195:
.LBE6208:
# FI_Rate.cpp:250:     myVars->FI_VEL[myVars->FI_TIME_N - 1][12] = vS0_S1;
	.loc 27 250 47 view .LVU1853
	movsd	256(%rsp), %xmm14	# %sfp, vS0_S1
.LBB6209:
.LBB6196:
.LBB6194:
# /usr/include/boost/multi_array/base.hpp:179:     return *(base + idx * strides[0]);
	.loc 1 179 37 view .LVU1854
	addq	%rsi, %rax	# slsr_1070, _1771
.LVL409:
	.loc 1 179 37 view .LVU1855
.LBE6194:
.LBE6196:
.LBE6209:
.LBB6210:
.LBB6211:
.LBB6212:
# /usr/include/boost/multi_array/base.hpp:177:     BOOST_ASSERT(idx - index_bases[0] >= 0);
	.loc 1 177 5 view .LVU1856
	movl	$13, %r9d	#, tmp901
.LBE6212:
.LBE6211:
.LBE6210:
# FI_Rate.cpp:250:     myVars->FI_VEL[myVars->FI_TIME_N - 1][12] = vS0_S1;
	.loc 27 250 47 view .LVU1857
	movsd	%xmm14, (%rax)	# vS0_S1, *_1771
.LVL410:
.LBB6217:
.LBI6217:
	.loc 3 202 7 is_stmt 1 view .LVU1858
.LBB6218:
.LBI6218:
	.loc 3 39 7 view .LVU1859
.LBB6219:
.LBI6219:
	.loc 1 295 3 view .LVU1860
.LBB6220:
.LBI6220:
	.loc 1 183 3 view .LVU1861
	.loc 1 183 3 is_stmt 0 view .LVU1862
.LBE6220:
.LBE6219:
.LBE6218:
.LBE6217:
	.loc 27 251 5 is_stmt 1 view .LVU1863
.LBB6221:
.LBI6221:
	.loc 2 519 13 view .LVU1864
.LBB6222:
.LBI6222:
	.loc 1 130 13 view .LVU1865
.LBB6223:
.LBB6224:
.LBI6224:
	.loc 3 358 3 view .LVU1866
.LBB6225:
.LBI6225:
	.loc 3 178 3 view .LVU1867
.LBB6226:
.LBI6226:
	.loc 1 294 3 view .LVU1868
.LBB6227:
.LBI6227:
	.loc 1 182 3 view .LVU1869
	.loc 1 182 3 is_stmt 0 view .LVU1870
.LBE6227:
.LBE6226:
.LBE6225:
.LBE6224:
.LBE6223:
.LBE6222:
.LBE6221:
.LBB6228:
.LBI6210:
	.loc 3 259 13 is_stmt 1 view .LVU1871
.LBB6215:
.LBI6211:
	.loc 1 170 13 view .LVU1872
.LBB6213:
# /usr/include/boost/multi_array/base.hpp:177:     BOOST_ASSERT(idx - index_bases[0] >= 0);
	.loc 1 177 5 is_stmt 0 view .LVU1873
	subq	%rdx, %r9	# _979, _1747
	js	.L135	#,
# /usr/include/boost/multi_array/base.hpp:178:     BOOST_ASSERT(size_type(idx - index_bases[0]) < extents[0]);
	.loc 1 178 5 view .LVU1874
	cmpq	%rcx, %r9	# _1885, _1747
	jnb	.L136	#,
.LBE6213:
.LBE6215:
.LBE6228:
# FI_Rate.cpp:251:     myVars->FI_VEL[myVars->FI_TIME_N - 1][13] = vz_1;
	.loc 27 251 47 view .LVU1875
	movsd	272(%rsp), %xmm8	# %sfp, vz_1
.LBB6229:
.LBB6216:
.LBB6214:
# /usr/include/boost/multi_array/base.hpp:179:     return *(base + idx * strides[0]);
	.loc 1 179 37 view .LVU1876
	addq	%rsi, %rax	# slsr_1070, _1754
.LVL411:
	.loc 1 179 37 view .LVU1877
.LBE6214:
.LBE6216:
.LBE6229:
.LBB6230:
.LBB6231:
.LBB6232:
# /usr/include/boost/multi_array/base.hpp:177:     BOOST_ASSERT(idx - index_bases[0] >= 0);
	.loc 1 177 5 view .LVU1878
	movl	$14, %r9d	#, tmp902
.LBE6232:
.LBE6231:
.LBE6230:
# FI_Rate.cpp:251:     myVars->FI_VEL[myVars->FI_TIME_N - 1][13] = vz_1;
	.loc 27 251 47 view .LVU1879
	movsd	%xmm8, (%rax)	# vz_1, *_1754
.LVL412:
.LBB6237:
.LBI6237:
	.loc 3 202 7 is_stmt 1 view .LVU1880
.LBB6238:
.LBI6238:
	.loc 3 39 7 view .LVU1881
.LBB6239:
.LBI6239:
	.loc 1 295 3 view .LVU1882
.LBB6240:
.LBI6240:
	.loc 1 183 3 view .LVU1883
	.loc 1 183 3 is_stmt 0 view .LVU1884
.LBE6240:
.LBE6239:
.LBE6238:
.LBE6237:
	.loc 27 252 5 is_stmt 1 view .LVU1885
.LBB6241:
.LBI6241:
	.loc 2 519 13 view .LVU1886
.LBB6242:
.LBI6242:
	.loc 1 130 13 view .LVU1887
.LBB6243:
.LBB6244:
.LBI6244:
	.loc 3 358 3 view .LVU1888
.LBB6245:
.LBI6245:
	.loc 3 178 3 view .LVU1889
.LBB6246:
.LBI6246:
	.loc 1 294 3 view .LVU1890
.LBB6247:
.LBI6247:
	.loc 1 182 3 view .LVU1891
	.loc 1 182 3 is_stmt 0 view .LVU1892
.LBE6247:
.LBE6246:
.LBE6245:
.LBE6244:
.LBE6243:
.LBE6242:
.LBE6241:
.LBB6248:
.LBI6230:
	.loc 3 259 13 is_stmt 1 view .LVU1893
.LBB6235:
.LBI6231:
	.loc 1 170 13 view .LVU1894
.LBB6233:
# /usr/include/boost/multi_array/base.hpp:177:     BOOST_ASSERT(idx - index_bases[0] >= 0);
	.loc 1 177 5 is_stmt 0 view .LVU1895
	subq	%rdx, %r9	# _979, _1730
	js	.L135	#,
# /usr/include/boost/multi_array/base.hpp:178:     BOOST_ASSERT(size_type(idx - index_bases[0]) < extents[0]);
	.loc 1 178 5 view .LVU1896
	cmpq	%rcx, %r9	# _1885, _1730
	jnb	.L136	#,
.LBE6233:
.LBE6235:
.LBE6248:
# FI_Rate.cpp:252:     myVars->FI_VEL[myVars->FI_TIME_N - 1][14] = v1z_1;
	.loc 27 252 47 view .LVU1897
	movsd	264(%rsp), %xmm11	# %sfp, v1z_1
.LBB6249:
.LBB6236:
.LBB6234:
# /usr/include/boost/multi_array/base.hpp:179:     return *(base + idx * strides[0]);
	.loc 1 179 37 view .LVU1898
	addq	%rsi, %rax	# slsr_1070, _1737
.LVL413:
	.loc 1 179 37 view .LVU1899
.LBE6234:
.LBE6236:
.LBE6249:
.LBB6250:
.LBB6251:
.LBB6252:
# /usr/include/boost/multi_array/base.hpp:177:     BOOST_ASSERT(idx - index_bases[0] >= 0);
	.loc 1 177 5 view .LVU1900
	movl	$15, %r9d	#, tmp903
.LBE6252:
.LBE6251:
.LBE6250:
# FI_Rate.cpp:252:     myVars->FI_VEL[myVars->FI_TIME_N - 1][14] = v1z_1;
	.loc 27 252 47 view .LVU1901
	movsd	%xmm11, (%rax)	# v1z_1, *_1737
.LVL414:
.LBB6257:
.LBI6257:
	.loc 3 202 7 is_stmt 1 view .LVU1902
.LBB6258:
.LBI6258:
	.loc 3 39 7 view .LVU1903
.LBB6259:
.LBI6259:
	.loc 1 295 3 view .LVU1904
.LBB6260:
.LBI6260:
	.loc 1 183 3 view .LVU1905
	.loc 1 183 3 is_stmt 0 view .LVU1906
.LBE6260:
.LBE6259:
.LBE6258:
.LBE6257:
	.loc 27 253 5 is_stmt 1 view .LVU1907
.LBB6261:
.LBI6261:
	.loc 2 519 13 view .LVU1908
.LBB6262:
.LBI6262:
	.loc 1 130 13 view .LVU1909
.LBB6263:
.LBB6264:
.LBI6264:
	.loc 3 358 3 view .LVU1910
.LBB6265:
.LBI6265:
	.loc 3 178 3 view .LVU1911
.LBB6266:
.LBI6266:
	.loc 1 294 3 view .LVU1912
.LBB6267:
.LBI6267:
	.loc 1 182 3 view .LVU1913
	.loc 1 182 3 is_stmt 0 view .LVU1914
.LBE6267:
.LBE6266:
.LBE6265:
.LBE6264:
.LBE6263:
.LBE6262:
.LBE6261:
.LBB6268:
.LBI6250:
	.loc 3 259 13 is_stmt 1 view .LVU1915
.LBB6255:
.LBI6251:
	.loc 1 170 13 view .LVU1916
.LBB6253:
# /usr/include/boost/multi_array/base.hpp:177:     BOOST_ASSERT(idx - index_bases[0] >= 0);
	.loc 1 177 5 is_stmt 0 view .LVU1917
	subq	%rdx, %r9	# _979, _1713
	js	.L135	#,
# /usr/include/boost/multi_array/base.hpp:178:     BOOST_ASSERT(size_type(idx - index_bases[0]) < extents[0]);
	.loc 1 178 5 view .LVU1918
	cmpq	%rcx, %r9	# _1885, _1713
	jnb	.L136	#,
.LBE6253:
.LBE6255:
.LBE6268:
# FI_Rate.cpp:253:     myVars->FI_VEL[myVars->FI_TIME_N - 1][15] = v2z_1;
	.loc 27 253 47 view .LVU1919
	movsd	16(%rsp), %xmm12	# %sfp, v2z_1
.LBB6269:
.LBB6256:
.LBB6254:
# /usr/include/boost/multi_array/base.hpp:179:     return *(base + idx * strides[0]);
	.loc 1 179 37 view .LVU1920
	addq	%rsi, %rax	# slsr_1070, _1720
.LVL415:
	.loc 1 179 37 view .LVU1921
.LBE6254:
.LBE6256:
.LBE6269:
.LBB6270:
.LBB6271:
.LBB6272:
# /usr/include/boost/multi_array/base.hpp:177:     BOOST_ASSERT(idx - index_bases[0] >= 0);
	.loc 1 177 5 view .LVU1922
	movl	$16, %r9d	#, tmp904
.LBE6272:
.LBE6271:
.LBE6270:
# FI_Rate.cpp:253:     myVars->FI_VEL[myVars->FI_TIME_N - 1][15] = v2z_1;
	.loc 27 253 47 view .LVU1923
	movsd	%xmm12, (%rax)	# v2z_1, *_1720
.LVL416:
.LBB6277:
.LBI6277:
	.loc 3 202 7 is_stmt 1 view .LVU1924
.LBB6278:
.LBI6278:
	.loc 3 39 7 view .LVU1925
.LBB6279:
.LBI6279:
	.loc 1 295 3 view .LVU1926
.LBB6280:
.LBI6280:
	.loc 1 183 3 view .LVU1927
	.loc 1 183 3 is_stmt 0 view .LVU1928
.LBE6280:
.LBE6279:
.LBE6278:
.LBE6277:
	.loc 27 254 5 is_stmt 1 view .LVU1929
.LBB6281:
.LBI6281:
	.loc 2 519 13 view .LVU1930
.LBB6282:
.LBI6282:
	.loc 1 130 13 view .LVU1931
.LBB6283:
.LBB6284:
.LBI6284:
	.loc 3 358 3 view .LVU1932
.LBB6285:
.LBI6285:
	.loc 3 178 3 view .LVU1933
.LBB6286:
.LBI6286:
	.loc 1 294 3 view .LVU1934
.LBB6287:
.LBI6287:
	.loc 1 182 3 view .LVU1935
	.loc 1 182 3 is_stmt 0 view .LVU1936
.LBE6287:
.LBE6286:
.LBE6285:
.LBE6284:
.LBE6283:
.LBE6282:
.LBE6281:
.LBB6288:
.LBI6270:
	.loc 3 259 13 is_stmt 1 view .LVU1937
.LBB6275:
.LBI6271:
	.loc 1 170 13 view .LVU1938
.LBB6273:
# /usr/include/boost/multi_array/base.hpp:177:     BOOST_ASSERT(idx - index_bases[0] >= 0);
	.loc 1 177 5 is_stmt 0 view .LVU1939
	subq	%rdx, %r9	# _979, _1696
	js	.L135	#,
# /usr/include/boost/multi_array/base.hpp:178:     BOOST_ASSERT(size_type(idx - index_bases[0]) < extents[0]);
	.loc 1 178 5 view .LVU1940
	cmpq	%rcx, %r9	# _1885, _1696
	jnb	.L136	#,
.LBE6273:
.LBE6275:
.LBE6288:
# FI_Rate.cpp:254:     myVars->FI_VEL[myVars->FI_TIME_N - 1][16] = v3z_1;
	.loc 27 254 47 view .LVU1941
	movsd	72(%rsp), %xmm13	# %sfp, v3z_1
.LBB6289:
.LBB6276:
.LBB6274:
# /usr/include/boost/multi_array/base.hpp:179:     return *(base + idx * strides[0]);
	.loc 1 179 37 view .LVU1942
	addq	%rsi, %rax	# slsr_1070, _1703
.LVL417:
	.loc 1 179 37 view .LVU1943
.LBE6274:
.LBE6276:
.LBE6289:
.LBB6290:
.LBB6291:
.LBB6292:
# /usr/include/boost/multi_array/base.hpp:177:     BOOST_ASSERT(idx - index_bases[0] >= 0);
	.loc 1 177 5 view .LVU1944
	movl	$17, %r9d	#, tmp905
.LBE6292:
.LBE6291:
.LBE6290:
# FI_Rate.cpp:254:     myVars->FI_VEL[myVars->FI_TIME_N - 1][16] = v3z_1;
	.loc 27 254 47 view .LVU1945
	movsd	%xmm13, (%rax)	# v3z_1, *_1703
.LVL418:
.LBB6297:
.LBI6297:
	.loc 3 202 7 is_stmt 1 view .LVU1946
.LBB6298:
.LBI6298:
	.loc 3 39 7 view .LVU1947
.LBB6299:
.LBI6299:
	.loc 1 295 3 view .LVU1948
.LBB6300:
.LBI6300:
	.loc 1 183 3 view .LVU1949
	.loc 1 183 3 is_stmt 0 view .LVU1950
.LBE6300:
.LBE6299:
.LBE6298:
.LBE6297:
	.loc 27 255 5 is_stmt 1 view .LVU1951
.LBB6301:
.LBI6301:
	.loc 2 519 13 view .LVU1952
.LBB6302:
.LBI6302:
	.loc 1 130 13 view .LVU1953
.LBB6303:
.LBB6304:
.LBI6304:
	.loc 3 358 3 view .LVU1954
.LBB6305:
.LBI6305:
	.loc 3 178 3 view .LVU1955
.LBB6306:
.LBI6306:
	.loc 1 294 3 view .LVU1956
.LBB6307:
.LBI6307:
	.loc 1 182 3 view .LVU1957
	.loc 1 182 3 is_stmt 0 view .LVU1958
.LBE6307:
.LBE6306:
.LBE6305:
.LBE6304:
.LBE6303:
.LBE6302:
.LBE6301:
.LBB6308:
.LBI6290:
	.loc 3 259 13 is_stmt 1 view .LVU1959
.LBB6295:
.LBI6291:
	.loc 1 170 13 view .LVU1960
.LBB6293:
# /usr/include/boost/multi_array/base.hpp:177:     BOOST_ASSERT(idx - index_bases[0] >= 0);
	.loc 1 177 5 is_stmt 0 view .LVU1961
	subq	%rdx, %r9	# _979, _1679
	js	.L135	#,
# /usr/include/boost/multi_array/base.hpp:178:     BOOST_ASSERT(size_type(idx - index_bases[0]) < extents[0]);
	.loc 1 178 5 view .LVU1962
	cmpq	%rcx, %r9	# _1885, _1679
	jnb	.L136	#,
.LBE6293:
.LBE6295:
.LBE6308:
# FI_Rate.cpp:255:     myVars->FI_VEL[myVars->FI_TIME_N - 1][17] = v0z_1;
	.loc 27 255 47 view .LVU1963
	movsd	80(%rsp), %xmm12	# %sfp, v0z_1
.LBB6309:
.LBB6296:
.LBB6294:
# /usr/include/boost/multi_array/base.hpp:179:     return *(base + idx * strides[0]);
	.loc 1 179 37 view .LVU1964
	addq	%rsi, %rax	# slsr_1070, _1686
.LVL419:
	.loc 1 179 37 view .LVU1965
.LBE6294:
.LBE6296:
.LBE6309:
.LBB6310:
.LBB6311:
.LBB6312:
# /usr/include/boost/multi_array/base.hpp:177:     BOOST_ASSERT(idx - index_bases[0] >= 0);
	.loc 1 177 5 view .LVU1966
	movl	$18, %r9d	#, tmp906
.LBE6312:
.LBE6311:
.LBE6310:
# FI_Rate.cpp:255:     myVars->FI_VEL[myVars->FI_TIME_N - 1][17] = v0z_1;
	.loc 27 255 47 view .LVU1967
	movsd	%xmm12, (%rax)	# v0z_1, *_1686
.LVL420:
.LBB6317:
.LBI6317:
	.loc 3 202 7 is_stmt 1 view .LVU1968
.LBB6318:
.LBI6318:
	.loc 3 39 7 view .LVU1969
.LBB6319:
.LBI6319:
	.loc 1 295 3 view .LVU1970
.LBB6320:
.LBI6320:
	.loc 1 183 3 view .LVU1971
	.loc 1 183 3 is_stmt 0 view .LVU1972
.LBE6320:
.LBE6319:
.LBE6318:
.LBE6317:
	.loc 27 256 5 is_stmt 1 view .LVU1973
.LBB6321:
.LBI6321:
	.loc 2 519 13 view .LVU1974
.LBB6322:
.LBI6322:
	.loc 1 130 13 view .LVU1975
.LBB6323:
.LBB6324:
.LBI6324:
	.loc 3 358 3 view .LVU1976
.LBB6325:
.LBI6325:
	.loc 3 178 3 view .LVU1977
.LBB6326:
.LBI6326:
	.loc 1 294 3 view .LVU1978
.LBB6327:
.LBI6327:
	.loc 1 182 3 view .LVU1979
	.loc 1 182 3 is_stmt 0 view .LVU1980
.LBE6327:
.LBE6326:
.LBE6325:
.LBE6324:
.LBE6323:
.LBE6322:
.LBE6321:
.LBB6328:
.LBI6310:
	.loc 3 259 13 is_stmt 1 view .LVU1981
.LBB6315:
.LBI6311:
	.loc 1 170 13 view .LVU1982
.LBB6313:
# /usr/include/boost/multi_array/base.hpp:177:     BOOST_ASSERT(idx - index_bases[0] >= 0);
	.loc 1 177 5 is_stmt 0 view .LVU1983
	subq	%rdx, %r9	# _979, _1662
	js	.L135	#,
# /usr/include/boost/multi_array/base.hpp:178:     BOOST_ASSERT(size_type(idx - index_bases[0]) < extents[0]);
	.loc 1 178 5 view .LVU1984
	cmpq	%rcx, %r9	# _1885, _1662
	jnb	.L136	#,
.LBE6313:
.LBE6315:
.LBE6328:
# FI_Rate.cpp:256:     myVars->FI_VEL[myVars->FI_TIME_N - 1][18] = vz_2;
	.loc 27 256 47 view .LVU1985
	movsd	280(%rsp), %xmm13	# %sfp, vz_2
.LBB6329:
.LBB6316:
.LBB6314:
# /usr/include/boost/multi_array/base.hpp:179:     return *(base + idx * strides[0]);
	.loc 1 179 37 view .LVU1986
	addq	%rsi, %rax	# slsr_1070, _1669
.LVL421:
	.loc 1 179 37 view .LVU1987
.LBE6314:
.LBE6316:
.LBE6329:
.LBB6330:
.LBB6331:
.LBB6332:
# /usr/include/boost/multi_array/base.hpp:177:     BOOST_ASSERT(idx - index_bases[0] >= 0);
	.loc 1 177 5 view .LVU1988
	movl	$19, %r9d	#, tmp907
.LBE6332:
.LBE6331:
.LBE6330:
# FI_Rate.cpp:256:     myVars->FI_VEL[myVars->FI_TIME_N - 1][18] = vz_2;
	.loc 27 256 47 view .LVU1989
	movsd	%xmm13, (%rax)	# vz_2, *_1669
.LVL422:
.LBB6337:
.LBI6337:
	.loc 3 202 7 is_stmt 1 view .LVU1990
.LBB6338:
.LBI6338:
	.loc 3 39 7 view .LVU1991
.LBB6339:
.LBI6339:
	.loc 1 295 3 view .LVU1992
.LBB6340:
.LBI6340:
	.loc 1 183 3 view .LVU1993
	.loc 1 183 3 is_stmt 0 view .LVU1994
.LBE6340:
.LBE6339:
.LBE6338:
.LBE6337:
	.loc 27 257 5 is_stmt 1 view .LVU1995
.LBB6341:
.LBI6341:
	.loc 2 519 13 view .LVU1996
.LBB6342:
.LBI6342:
	.loc 1 130 13 view .LVU1997
.LBB6343:
.LBB6344:
.LBI6344:
	.loc 3 358 3 view .LVU1998
.LBB6345:
.LBI6345:
